
server.elf:     file format elf32-littlearm


Disassembly of section .text:

00008000 <__code_start__>:
    8000:	e3a00013 	mov	r0, #19, 0
    8004:	e3800080 	orr	r0, r0, #128, 0	; 0x80
    8008:	e129f000 	msr	CPSR_fc, r0
    800c:	e3a01000 	mov	r1, #0, 0
    8010:	ee071f95 	mcr	15, 0, r1, cr7, cr5, {4}
    8014:	e3a0d302 	mov	sp, #134217728	; 0x8000000
    8018:	e3a0b000 	mov	fp, #0, 0
    801c:	eb0015e4 	bl	d7b4 <_cstart>
    8020:	eb001604 	bl	d838 <rpi_reboot>

00008024 <PUT32>:
    8024:	e5801000 	str	r1, [r0]
    8028:	e12fff1e 	bx	lr

0000802c <GET32>:
    802c:	e5900000 	ldr	r0, [r0]
    8030:	e12fff1e 	bx	lr

00008034 <BRANCHTO>:
    8034:	e12fff10 	bx	r0

00008038 <initializeQueue>:
    8038:	e92d4010 	push	{r4, lr}
    803c:	e1a04000 	mov	r4, r0
    8040:	e5801004 	str	r1, [r0, #4]
    8044:	e5802014 	str	r2, [r0, #20]
    8048:	e0000192 	mul	r0, r2, r1
    804c:	eb0016de 	bl	dbcc <kmalloc>
    8050:	e5840000 	str	r0, [r4]
    8054:	e3a03000 	mov	r3, #0, 0
    8058:	e5843008 	str	r3, [r4, #8]
    805c:	e584300c 	str	r3, [r4, #12]
    8060:	e5843010 	str	r3, [r4, #16]
    8064:	e8bd8010 	pop	{r4, pc}

00008068 <isFull>:
    8068:	e5902010 	ldr	r2, [r0, #16]
    806c:	e5900014 	ldr	r0, [r0, #20]
    8070:	e1520000 	cmp	r2, r0
    8074:	13a00000 	movne	r0, #0, 0
    8078:	03a00001 	moveq	r0, #1, 0
    807c:	e12fff1e 	bx	lr

00008080 <isEmpty>:
    8080:	e5900010 	ldr	r0, [r0, #16]
    8084:	e16f0f10 	clz	r0, r0
    8088:	e1a002a0 	lsr	r0, r0, #5
    808c:	e12fff1e 	bx	lr

00008090 <mod>:
    8090:	e1500001 	cmp	r0, r1
    8094:	b12fff1e 	bxlt	lr
    8098:	e0400001 	sub	r0, r0, r1
    809c:	eafffffb 	b	8090 <mod>

000080a0 <enqueue>:
    80a0:	e92d4070 	push	{r4, r5, r6, lr}
    80a4:	e1a04000 	mov	r4, r0
    80a8:	e1a05001 	mov	r5, r1
    80ac:	ebffffed 	bl	8068 <isFull>
    80b0:	e3500000 	cmp	r0, #0, 0
    80b4:	1a00000f 	bne	80f8 <enqueue+0x58>
    80b8:	e5943000 	ldr	r3, [r4]
    80bc:	e594000c 	ldr	r0, [r4, #12]
    80c0:	e5942004 	ldr	r2, [r4, #4]
    80c4:	e1a01005 	mov	r1, r5
    80c8:	e0203092 	mla	r0, r2, r0, r3
    80cc:	eb001439 	bl	d1b8 <memcpy>
    80d0:	e594000c 	ldr	r0, [r4, #12]
    80d4:	e5941014 	ldr	r1, [r4, #20]
    80d8:	e2800001 	add	r0, r0, #1, 0
    80dc:	ebffffeb 	bl	8090 <mod>
    80e0:	e584000c 	str	r0, [r4, #12]
    80e4:	e5943010 	ldr	r3, [r4, #16]
    80e8:	e2833001 	add	r3, r3, #1, 0
    80ec:	e5843010 	str	r3, [r4, #16]
    80f0:	e3a00001 	mov	r0, #1, 0
    80f4:	e8bd8070 	pop	{r4, r5, r6, pc}
    80f8:	e59f0008 	ldr	r0, [pc, #8]	; 8108 <enqueue+0x68>
    80fc:	eb001474 	bl	d2d4 <printk>
    8100:	e3a00000 	mov	r0, #0, 0
    8104:	e8bd8070 	pop	{r4, r5, r6, pc}
    8108:	0000dfe0 	.word	0x0000dfe0

0000810c <dequeue>:
    810c:	e92d4070 	push	{r4, r5, r6, lr}
    8110:	e1a04000 	mov	r4, r0
    8114:	e1a05001 	mov	r5, r1
    8118:	ebffffd8 	bl	8080 <isEmpty>
    811c:	e3500000 	cmp	r0, #0, 0
    8120:	1a00000f 	bne	8164 <dequeue+0x58>
    8124:	e5943000 	ldr	r3, [r4]
    8128:	e5941008 	ldr	r1, [r4, #8]
    812c:	e5942004 	ldr	r2, [r4, #4]
    8130:	e0213192 	mla	r1, r2, r1, r3
    8134:	e1a00005 	mov	r0, r5
    8138:	eb00141e 	bl	d1b8 <memcpy>
    813c:	e5940008 	ldr	r0, [r4, #8]
    8140:	e5941014 	ldr	r1, [r4, #20]
    8144:	e2800001 	add	r0, r0, #1, 0
    8148:	ebffffd0 	bl	8090 <mod>
    814c:	e5840008 	str	r0, [r4, #8]
    8150:	e5943010 	ldr	r3, [r4, #16]
    8154:	e2433001 	sub	r3, r3, #1, 0
    8158:	e5843010 	str	r3, [r4, #16]
    815c:	e3a00001 	mov	r0, #1, 0
    8160:	e8bd8070 	pop	{r4, r5, r6, pc}
    8164:	e59f0008 	ldr	r0, [pc, #8]	; 8174 <dequeue+0x68>
    8168:	eb001459 	bl	d2d4 <printk>
    816c:	e3a00000 	mov	r0, #0, 0
    8170:	e8bd8070 	pop	{r4, r5, r6, pc}
    8174:	0000e000 	.word	0x0000e000

00008178 <get_client_status>:
    8178:	e59f300c 	ldr	r3, [pc, #12]	; 818c <get_client_status+0x14>
    817c:	e5933000 	ldr	r3, [r3]
    8180:	e1a00033 	lsr	r0, r3, r0
    8184:	e2000001 	and	r0, r0, #1, 0
    8188:	e12fff1e 	bx	lr
    818c:	000108b8 	.word	0x000108b8

00008190 <set_client_status>:
    8190:	e59f301c 	ldr	r3, [pc, #28]	; 81b4 <set_client_status+0x24>
    8194:	e593c000 	ldr	ip, [r3]
    8198:	e3a02001 	mov	r2, #1, 0
    819c:	e1ccc012 	bic	ip, ip, r2, lsl r0
    81a0:	e583c000 	str	ip, [r3]
    81a4:	e5932000 	ldr	r2, [r3]
    81a8:	e1820011 	orr	r0, r2, r1, lsl r0
    81ac:	e5830000 	str	r0, [r3]
    81b0:	e12fff1e 	bx	lr
    81b4:	000108b8 	.word	0x000108b8

000081b8 <interrupt_vector>:
    81b8:	e92d4010 	push	{r4, lr}
    81bc:	eb00158c 	bl	d7f4 <dev_barrier>
    81c0:	eb00158b 	bl	d7f4 <dev_barrier>
    81c4:	e8bd8010 	pop	{r4, pc}

000081c8 <read_function>:
    81c8:	e92d4070 	push	{r4, r5, r6, lr}
    81cc:	e24dd008 	sub	sp, sp, #8, 0
    81d0:	e1a04000 	mov	r4, r0
    81d4:	e1a05001 	mov	r5, r1
    81d8:	e1a06002 	mov	r6, r2
    81dc:	e1a01000 	mov	r1, r0
    81e0:	e59f0214 	ldr	r0, [pc, #532]	; 83fc <read_function+0x234>
    81e4:	eb00143a 	bl	d2d4 <printk>
    81e8:	e1a02004 	mov	r2, r4
    81ec:	e1a01006 	mov	r1, r6
    81f0:	e1a00005 	mov	r0, r5
    81f4:	eb0002c9 	bl	8d20 <fat32_stat>
    81f8:	e3500000 	cmp	r0, #0, 0
    81fc:	0a000014 	beq	8254 <read_function+0x8c>
    8200:	e1a01004 	mov	r1, r4
    8204:	e59f01f4 	ldr	r0, [pc, #500]	; 8400 <read_function+0x238>
    8208:	eb001431 	bl	d2d4 <printk>
    820c:	e1a02004 	mov	r2, r4
    8210:	e1a01006 	mov	r1, r6
    8214:	e1a00005 	mov	r0, r5
    8218:	eb000313 	bl	8e6c <fat32_read>
    821c:	e2505000 	subs	r5, r0, #0, 0
    8220:	0a000014 	beq	8278 <read_function+0xb0>
    8224:	e5952008 	ldr	r2, [r5, #8]
    8228:	e5950000 	ldr	r0, [r5]
    822c:	e16f3f10 	clz	r3, r0
    8230:	e1a032a3 	lsr	r3, r3, #5
    8234:	e3520000 	cmp	r2, #0, 0
    8238:	03a03001 	moveq	r3, #1, 0
    823c:	e3530000 	cmp	r3, #0, 0
    8240:	1a000049 	bne	836c <read_function+0x1a4>
    8244:	e202e003 	and	lr, r2, #3, 0
    8248:	e1a0c122 	lsr	ip, r2, #2
    824c:	e1a03002 	mov	r3, r2
    8250:	ea00001c 	b	82c8 <read_function+0x100>
    8254:	e58d4004 	str	r4, [sp, #4]
    8258:	e59f31a4 	ldr	r3, [pc, #420]	; 8404 <read_function+0x23c>
    825c:	e58d3000 	str	r3, [sp]
    8260:	e3a0302d 	mov	r3, #45, 0	; 0x2d
    8264:	e59f219c 	ldr	r2, [pc, #412]	; 8408 <read_function+0x240>
    8268:	e59f119c 	ldr	r1, [pc, #412]	; 840c <read_function+0x244>
    826c:	e59f019c 	ldr	r0, [pc, #412]	; 8410 <read_function+0x248>
    8270:	eb001417 	bl	d2d4 <printk>
    8274:	eb001546 	bl	d794 <clean_reboot>
    8278:	e59f3194 	ldr	r3, [pc, #404]	; 8414 <read_function+0x24c>
    827c:	e58d3000 	str	r3, [sp]
    8280:	e3a03031 	mov	r3, #49, 0	; 0x31
    8284:	e59f217c 	ldr	r2, [pc, #380]	; 8408 <read_function+0x240>
    8288:	e59f117c 	ldr	r1, [pc, #380]	; 840c <read_function+0x244>
    828c:	e59f0184 	ldr	r0, [pc, #388]	; 8418 <read_function+0x250>
    8290:	eb00140f 	bl	d2d4 <printk>
    8294:	eb00153e 	bl	d794 <clean_reboot>
    8298:	e5d06001 	ldrb	r6, [r0, #1]
    829c:	e5d01000 	ldrb	r1, [r0]
    82a0:	e0811406 	add	r1, r1, r6, lsl #8
    82a4:	e0811003 	add	r1, r1, r3
    82a8:	e5d06003 	ldrb	r6, [r0, #3]
    82ac:	e5d03002 	ldrb	r3, [r0, #2]
    82b0:	e0833406 	add	r3, r3, r6, lsl #8
    82b4:	e0213583 	eor	r3, r1, r3, lsl #11
    82b8:	e0233801 	eor	r3, r3, r1, lsl #16
    82bc:	e2800004 	add	r0, r0, #4, 0
    82c0:	e08335a3 	add	r3, r3, r3, lsr #11
    82c4:	e24cc001 	sub	ip, ip, #1, 0
    82c8:	e35c0000 	cmp	ip, #0, 0
    82cc:	1afffff1 	bne	8298 <read_function+0xd0>
    82d0:	e35e0002 	cmp	lr, #2, 0
    82d4:	0a000018 	beq	833c <read_function+0x174>
    82d8:	e35e0003 	cmp	lr, #3, 0
    82dc:	0a00000d 	beq	8318 <read_function+0x150>
    82e0:	e35e0001 	cmp	lr, #1, 0
    82e4:	0a00001b 	beq	8358 <read_function+0x190>
    82e8:	e0233183 	eor	r3, r3, r3, lsl #3
    82ec:	e08332a3 	add	r3, r3, r3, lsr #5
    82f0:	e0233203 	eor	r3, r3, r3, lsl #4
    82f4:	e08338a3 	add	r3, r3, r3, lsr #17
    82f8:	e0233c83 	eor	r3, r3, r3, lsl #25
    82fc:	e0833323 	add	r3, r3, r3, lsr #6
    8300:	e1a01004 	mov	r1, r4
    8304:	e59f0110 	ldr	r0, [pc, #272]	; 841c <read_function+0x254>
    8308:	eb0013f1 	bl	d2d4 <printk>
    830c:	e5956000 	ldr	r6, [r5]
    8310:	e3a04000 	mov	r4, #0, 0
    8314:	ea00001c 	b	838c <read_function+0x1c4>
    8318:	e5d0c001 	ldrb	ip, [r0, #1]
    831c:	e5d01000 	ldrb	r1, [r0]
    8320:	e081140c 	add	r1, r1, ip, lsl #8
    8324:	e0833001 	add	r3, r3, r1
    8328:	e0233803 	eor	r3, r3, r3, lsl #16
    832c:	e1d010d2 	ldrsb	r1, [r0, #2]
    8330:	e0233901 	eor	r3, r3, r1, lsl #18
    8334:	e08335a3 	add	r3, r3, r3, lsr #11
    8338:	eaffffea 	b	82e8 <read_function+0x120>
    833c:	e5d0c001 	ldrb	ip, [r0, #1]
    8340:	e5d01000 	ldrb	r1, [r0]
    8344:	e081140c 	add	r1, r1, ip, lsl #8
    8348:	e0833001 	add	r3, r3, r1
    834c:	e0233583 	eor	r3, r3, r3, lsl #11
    8350:	e08338a3 	add	r3, r3, r3, lsr #17
    8354:	eaffffe3 	b	82e8 <read_function+0x120>
    8358:	e1d010d0 	ldrsb	r1, [r0]
    835c:	e0833001 	add	r3, r3, r1
    8360:	e0233503 	eor	r3, r3, r3, lsl #10
    8364:	e08330a3 	add	r3, r3, r3, lsr #1
    8368:	eaffffde 	b	82e8 <read_function+0x120>
    836c:	e3a03000 	mov	r3, #0, 0
    8370:	eaffffe2 	b	8300 <read_function+0x138>
    8374:	e7962104 	ldr	r2, [r6, r4, lsl #2]
    8378:	e1a03002 	mov	r3, r2
    837c:	e1a01004 	mov	r1, r4
    8380:	e59f0098 	ldr	r0, [pc, #152]	; 8420 <read_function+0x258>
    8384:	eb0013d2 	bl	d2d4 <printk>
    8388:	e2844001 	add	r4, r4, #1, 0
    838c:	e3540003 	cmp	r4, #3, 0
    8390:	dafffff7 	ble	8374 <read_function+0x1ac>
    8394:	e5962000 	ldr	r2, [r6]
    8398:	e59f3084 	ldr	r3, [pc, #132]	; 8424 <read_function+0x25c>
    839c:	e1520003 	cmp	r2, r3
    83a0:	1a000005 	bne	83bc <read_function+0x1f4>
    83a4:	e5963008 	ldr	r3, [r6, #8]
    83a8:	e3530702 	cmp	r3, #524288	; 0x80000
    83ac:	1a00000a 	bne	83dc <read_function+0x214>
    83b0:	e1a00005 	mov	r0, r5
    83b4:	e28dd008 	add	sp, sp, #8, 0
    83b8:	e8bd8070 	pop	{r4, r5, r6, pc}
    83bc:	e59f3064 	ldr	r3, [pc, #100]	; 8428 <read_function+0x260>
    83c0:	e58d3000 	str	r3, [sp]
    83c4:	e3a0303b 	mov	r3, #59, 0	; 0x3b
    83c8:	e59f2038 	ldr	r2, [pc, #56]	; 8408 <read_function+0x240>
    83cc:	e59f1038 	ldr	r1, [pc, #56]	; 840c <read_function+0x244>
    83d0:	e59f0040 	ldr	r0, [pc, #64]	; 8418 <read_function+0x250>
    83d4:	eb0013be 	bl	d2d4 <printk>
    83d8:	eb0014ed 	bl	d794 <clean_reboot>
    83dc:	e59f3048 	ldr	r3, [pc, #72]	; 842c <read_function+0x264>
    83e0:	e58d3000 	str	r3, [sp]
    83e4:	e3a0303f 	mov	r3, #63, 0	; 0x3f
    83e8:	e59f2018 	ldr	r2, [pc, #24]	; 8408 <read_function+0x240>
    83ec:	e59f1018 	ldr	r1, [pc, #24]	; 840c <read_function+0x244>
    83f0:	e59f0020 	ldr	r0, [pc, #32]	; 8418 <read_function+0x250>
    83f4:	eb0013b6 	bl	d2d4 <printk>
    83f8:	eb0014e5 	bl	d794 <clean_reboot>
    83fc:	0000e024 	.word	0x0000e024
    8400:	0000e088 	.word	0x0000e088
    8404:	0000e084 	.word	0x0000e084
    8408:	0000e2c8 	.word	0x0000e2c8
    840c:	0000e038 	.word	0x0000e038
    8410:	0000e048 	.word	0x0000e048
    8414:	0000e0c4 	.word	0x0000e0c4
    8418:	0000e094 	.word	0x0000e094
    841c:	0000e0c8 	.word	0x0000e0c8
    8420:	0000e0e4 	.word	0x0000e0e4
    8424:	12345678 	.word	0x12345678
    8428:	0000e0f4 	.word	0x0000e0f4
    842c:	0000e108 	.word	0x0000e108

00008430 <notmain>:
    8430:	e92d4030 	push	{r4, r5, lr}
    8434:	e24dd094 	sub	sp, sp, #148, 0	; 0x94
    8438:	eb0012b2 	bl	cf08 <uart_init>
    843c:	e3a01301 	mov	r1, #67108864	; 0x4000000
    8440:	e3a00601 	mov	r0, #1048576	; 0x100000
    8444:	eb00156e 	bl	da04 <kmalloc_init_set_start>
    8448:	eb0003b9 	bl	9334 <pi_sd_init>
    844c:	e3a0200a 	mov	r2, #10, 0
    8450:	e3a0100c 	mov	r1, #12, 0
    8454:	e28d0078 	add	r0, sp, #120, 0	; 0x78
    8458:	ebfffef6 	bl	8038 <initializeQueue>
    845c:	e59f31dc 	ldr	r3, [pc, #476]	; 8640 <notmain+0x210>
    8460:	e313001f 	tst	r3, #31, 0
    8464:	1a00003b 	bne	8558 <notmain+0x128>
    8468:	ee1c2f10 	mrc	15, 0, r2, cr12, cr0, {0}
    846c:	e3520000 	cmp	r2, #0, 0
    8470:	1a000040 	bne	8578 <notmain+0x148>
    8474:	ee0c3f10 	mcr	15, 0, r3, cr12, cr0, {0}
    8478:	e3a03000 	mov	r3, #0, 0
    847c:	ee073f95 	mcr	15, 0, r3, cr7, cr5, {4}
    8480:	ee1c3f10 	mrc	15, 0, r3, cr12, cr0, {0}
    8484:	e59f21b4 	ldr	r2, [pc, #436]	; 8640 <notmain+0x210>
    8488:	e1530002 	cmp	r3, r2
    848c:	1a000040 	bne	8594 <notmain+0x164>
    8490:	e59f01ac 	ldr	r0, [pc, #428]	; 8644 <notmain+0x214>
    8494:	eb00138e 	bl	d2d4 <printk>
    8498:	eb00007a 	bl	8688 <mbr_read>
    849c:	e1a04000 	mov	r4, r0
    84a0:	e59f01a0 	ldr	r0, [pc, #416]	; 8648 <notmain+0x218>
    84a4:	eb00138a 	bl	d2d4 <printk>
    84a8:	e3a02010 	mov	r2, #16, 0
    84ac:	e2841f6f 	add	r1, r4, #444	; 0x1bc
    84b0:	e2811002 	add	r1, r1, #2, 0
    84b4:	e28d0068 	add	r0, sp, #104, 0	; 0x68
    84b8:	eb00133e 	bl	d1b8 <memcpy>
    84bc:	e5dd306c 	ldrb	r3, [sp, #108]	; 0x6c
    84c0:	e243300b 	sub	r3, r3, #11, 0
    84c4:	e3530001 	cmp	r3, #1, 0
    84c8:	8a000039 	bhi	85b4 <notmain+0x184>
    84cc:	e59f0178 	ldr	r0, [pc, #376]	; 864c <notmain+0x21c>
    84d0:	eb00137f 	bl	d2d4 <printk>
    84d4:	e28d1068 	add	r1, sp, #104, 0	; 0x68
    84d8:	e28d004c 	add	r0, sp, #76, 0	; 0x4c
    84dc:	eb0000ff 	bl	88e0 <fat32_mk>
    84e0:	e59f0168 	ldr	r0, [pc, #360]	; 8650 <notmain+0x220>
    84e4:	eb00137a 	bl	d2d4 <printk>
    84e8:	e28d104c 	add	r1, sp, #76, 0	; 0x4c
    84ec:	e28d0020 	add	r0, sp, #32, 0
    84f0:	eb000194 	bl	8b48 <fat32_get_root>
    84f4:	e28d2020 	add	r2, sp, #32, 0
    84f8:	e28d104c 	add	r1, sp, #76, 0	; 0x4c
    84fc:	e59f0150 	ldr	r0, [pc, #336]	; 8654 <notmain+0x224>
    8500:	ebffff30 	bl	81c8 <read_function>
    8504:	e58d001c 	str	r0, [sp, #28]
    8508:	e28d2020 	add	r2, sp, #32, 0
    850c:	e28d104c 	add	r1, sp, #76, 0	; 0x4c
    8510:	e59f0140 	ldr	r0, [pc, #320]	; 8658 <notmain+0x228>
    8514:	ebffff2b 	bl	81c8 <read_function>
    8518:	e58d0018 	str	r0, [sp, #24]
    851c:	e28d2020 	add	r2, sp, #32, 0
    8520:	e28d104c 	add	r1, sp, #76, 0	; 0x4c
    8524:	e59f0130 	ldr	r0, [pc, #304]	; 865c <notmain+0x22c>
    8528:	ebffff26 	bl	81c8 <read_function>
    852c:	e58d0014 	str	r0, [sp, #20]
    8530:	e28d101c 	add	r1, sp, #28, 0
    8534:	e28d0078 	add	r0, sp, #120, 0	; 0x78
    8538:	ebfffed8 	bl	80a0 <enqueue>
    853c:	e28d1018 	add	r1, sp, #24, 0
    8540:	e28d0078 	add	r0, sp, #120, 0	; 0x78
    8544:	ebfffed5 	bl	80a0 <enqueue>
    8548:	e28d1014 	add	r1, sp, #20, 0
    854c:	e28d0078 	add	r0, sp, #120, 0	; 0x78
    8550:	ebfffed2 	bl	80a0 <enqueue>
    8554:	ea000021 	b	85e0 <notmain+0x1b0>
    8558:	e59f30e0 	ldr	r3, [pc, #224]	; 8640 <notmain+0x210>
    855c:	e58d3000 	str	r3, [sp]
    8560:	e3a0302a 	mov	r3, #42, 0	; 0x2a
    8564:	e59f20f4 	ldr	r2, [pc, #244]	; 8660 <notmain+0x230>
    8568:	e59f10f4 	ldr	r1, [pc, #244]	; 8664 <notmain+0x234>
    856c:	e59f00f4 	ldr	r0, [pc, #244]	; 8668 <notmain+0x238>
    8570:	eb001357 	bl	d2d4 <printk>
    8574:	eb001486 	bl	d794 <clean_reboot>
    8578:	e58d2000 	str	r2, [sp]
    857c:	e3a0302e 	mov	r3, #46, 0	; 0x2e
    8580:	e59f20d8 	ldr	r2, [pc, #216]	; 8660 <notmain+0x230>
    8584:	e59f10d8 	ldr	r1, [pc, #216]	; 8664 <notmain+0x234>
    8588:	e59f00dc 	ldr	r0, [pc, #220]	; 866c <notmain+0x23c>
    858c:	eb001350 	bl	d2d4 <printk>
    8590:	eb00147f 	bl	d794 <clean_reboot>
    8594:	e58d3004 	str	r3, [sp, #4]
    8598:	e58d2000 	str	r2, [sp]
    859c:	e3a03033 	mov	r3, #51, 0	; 0x33
    85a0:	e59f20b8 	ldr	r2, [pc, #184]	; 8660 <notmain+0x230>
    85a4:	e59f10b8 	ldr	r1, [pc, #184]	; 8664 <notmain+0x234>
    85a8:	e59f00c0 	ldr	r0, [pc, #192]	; 8670 <notmain+0x240>
    85ac:	eb001348 	bl	d2d4 <printk>
    85b0:	eb001477 	bl	d794 <clean_reboot>
    85b4:	e59f30b8 	ldr	r3, [pc, #184]	; 8674 <notmain+0x244>
    85b8:	e58d3000 	str	r3, [sp]
    85bc:	e3a03056 	mov	r3, #86, 0	; 0x56
    85c0:	e59f20b0 	ldr	r2, [pc, #176]	; 8678 <notmain+0x248>
    85c4:	e59f10b0 	ldr	r1, [pc, #176]	; 867c <notmain+0x24c>
    85c8:	e59f00b0 	ldr	r0, [pc, #176]	; 8680 <notmain+0x250>
    85cc:	eb001340 	bl	d2d4 <printk>
    85d0:	eb00146f 	bl	d794 <clean_reboot>
    85d4:	e3a01000 	mov	r1, #0, 0
    85d8:	e1a00005 	mov	r0, r5
    85dc:	ebfffeeb 	bl	8190 <set_client_status>
    85e0:	e28d1008 	add	r1, sp, #8, 0
    85e4:	e28d0078 	add	r0, sp, #120, 0	; 0x78
    85e8:	ebfffec7 	bl	810c <dequeue>
    85ec:	e3500000 	cmp	r0, #0, 0
    85f0:	0a000010 	beq	8638 <notmain+0x208>
    85f4:	e59d2010 	ldr	r2, [sp, #16]
    85f8:	e59d100c 	ldr	r1, [sp, #12]
    85fc:	e59f0080 	ldr	r0, [pc, #128]	; 8684 <notmain+0x254>
    8600:	eb001333 	bl	d2d4 <printk>
    8604:	e3a04000 	mov	r4, #0, 0
    8608:	ea000000 	b	8610 <notmain+0x1e0>
    860c:	e2844001 	add	r4, r4, #1, 0
    8610:	e1a05004 	mov	r5, r4
    8614:	e3540003 	cmp	r4, #3, 0
    8618:	8afffff0 	bhi	85e0 <notmain+0x1b0>
    861c:	e1a00004 	mov	r0, r4
    8620:	ebfffed4 	bl	8178 <get_client_status>
    8624:	e3500000 	cmp	r0, #0, 0
    8628:	1affffe9 	bne	85d4 <notmain+0x1a4>
    862c:	e3540003 	cmp	r4, #3, 0
    8630:	03a04000 	moveq	r4, #0, 0
    8634:	eafffff4 	b	860c <notmain+0x1dc>
    8638:	e28dd094 	add	sp, sp, #148, 0	; 0x94
    863c:	e8bd8030 	pop	{r4, r5, pc}
    8640:	0000cc20 	.word	0x0000cc20
    8644:	0000e1ec 	.word	0x0000e1ec
    8648:	0000e200 	.word	0x0000e200
    864c:	0000e248 	.word	0x0000e248
    8650:	0000e25c 	.word	0x0000e25c
    8654:	0000e27c 	.word	0x0000e27c
    8658:	0000e288 	.word	0x0000e288
    865c:	0000e294 	.word	0x0000e294
    8660:	0000e2d8 	.word	0x0000e2d8
    8664:	0000e118 	.word	0x0000e118
    8668:	0000e160 	.word	0x0000e160
    866c:	0000e188 	.word	0x0000e188
    8670:	0000e1c0 	.word	0x0000e1c0
    8674:	0000e220 	.word	0x0000e220
    8678:	0000e2e8 	.word	0x0000e2e8
    867c:	0000e038 	.word	0x0000e038
    8680:	0000e094 	.word	0x0000e094
    8684:	0000e2a0 	.word	0x0000e2a0

00008688 <mbr_read>:
    8688:	e92d4010 	push	{r4, lr}
    868c:	eb000328 	bl	9334 <pi_sd_init>
    8690:	e3a01001 	mov	r1, #1, 0
    8694:	e3a00000 	mov	r0, #0, 0
    8698:	eb000389 	bl	94c4 <pi_sec_read>
    869c:	e1a04000 	mov	r4, r0
    86a0:	eb000582 	bl	9cb0 <mbr_check>
    86a4:	e1a00004 	mov	r0, r4
    86a8:	e8bd8010 	pop	{r4, pc}

000086ac <cluster_to_lba>:
    86ac:	e92d4030 	push	{r4, r5, lr}
    86b0:	e24dd00c 	sub	sp, sp, #12, 0
    86b4:	e3510001 	cmp	r1, #1, 0
    86b8:	9a00000e 	bls	86f8 <cluster_to_lba+0x4c>
    86bc:	e1a04001 	mov	r4, r1
    86c0:	e5903008 	ldr	r3, [r0, #8]
    86c4:	e2415002 	sub	r5, r1, #2, 0
    86c8:	e590200c 	ldr	r2, [r0, #12]
    86cc:	e0253592 	mla	r5, r2, r5, r3
    86d0:	e59f1040 	ldr	r1, [pc, #64]	; 8718 <cluster_to_lba+0x6c>
    86d4:	e59f0040 	ldr	r0, [pc, #64]	; 871c <cluster_to_lba+0x70>
    86d8:	eb0012fd 	bl	d2d4 <printk>
    86dc:	e1a02005 	mov	r2, r5
    86e0:	e1a01004 	mov	r1, r4
    86e4:	e59f0034 	ldr	r0, [pc, #52]	; 8720 <cluster_to_lba+0x74>
    86e8:	eb0012f9 	bl	d2d4 <printk>
    86ec:	e1a00005 	mov	r0, r5
    86f0:	e28dd00c 	add	sp, sp, #12, 0
    86f4:	e8bd8030 	pop	{r4, r5, pc}
    86f8:	e59f3024 	ldr	r3, [pc, #36]	; 8724 <cluster_to_lba+0x78>
    86fc:	e58d3000 	str	r3, [sp]
    8700:	e3a03051 	mov	r3, #81, 0	; 0x51
    8704:	e59f200c 	ldr	r2, [pc, #12]	; 8718 <cluster_to_lba+0x6c>
    8708:	e59f1018 	ldr	r1, [pc, #24]	; 8728 <cluster_to_lba+0x7c>
    870c:	e59f0018 	ldr	r0, [pc, #24]	; 872c <cluster_to_lba+0x80>
    8710:	eb0012ef 	bl	d2d4 <printk>
    8714:	eb00141e 	bl	d794 <clean_reboot>
    8718:	0000e5ec 	.word	0x0000e5ec
    871c:	0000e310 	.word	0x0000e310
    8720:	0000e31c 	.word	0x0000e31c
    8724:	0000e2fc 	.word	0x0000e2fc
    8728:	0000e2f0 	.word	0x0000e2f0
    872c:	0000e094 	.word	0x0000e094

00008730 <get_cluster_chain_length>:
    8730:	e92d4070 	push	{r4, r5, r6, lr}
    8734:	e1a04001 	mov	r4, r1
    8738:	e5906014 	ldr	r6, [r0, #20]
    873c:	e3a05001 	mov	r5, #1, 0
    8740:	e1a00004 	mov	r0, r4
    8744:	eb000809 	bl	a770 <fat32_fat_entry_type>
    8748:	e370028f 	cmn	r0, #-268435448	; 0xf0000008
    874c:	02855001 	addeq	r5, r5, #1, 0
    8750:	07964104 	ldreq	r4, [r6, r4, lsl #2]
    8754:	0afffff9 	beq	8740 <get_cluster_chain_length+0x10>
    8758:	e1a00005 	mov	r0, r5
    875c:	e8bd8070 	pop	{r4, r5, r6, pc}

00008760 <read_cluster_chain>:
    8760:	e92d41f0 	push	{r4, r5, r6, r7, r8, lr}
    8764:	e1a05000 	mov	r5, r0
    8768:	e1a04001 	mov	r4, r1
    876c:	e1a06002 	mov	r6, r2
    8770:	e5907014 	ldr	r7, [r0, #20]
    8774:	e1a00004 	mov	r0, r4
    8778:	eb0007fc 	bl	a770 <fat32_fat_entry_type>
    877c:	e370028f 	cmn	r0, #-268435448	; 0xf0000008
    8780:	08bd81f0 	popeq	{r4, r5, r6, r7, r8, pc}
    8784:	e1a01004 	mov	r1, r4
    8788:	e1a00005 	mov	r0, r5
    878c:	ebffffc6 	bl	86ac <cluster_to_lba>
    8790:	e1a01000 	mov	r1, r0
    8794:	e595200c 	ldr	r2, [r5, #12]
    8798:	e1a00006 	mov	r0, r6
    879c:	eb0002f6 	bl	937c <pi_sd_read>
    87a0:	e595100c 	ldr	r1, [r5, #12]
    87a4:	e59f2014 	ldr	r2, [pc, #20]	; 87c0 <read_cluster_chain+0x60>
    87a8:	e5d2300b 	ldrb	r3, [r2, #11]
    87ac:	e5d2200c 	ldrb	r2, [r2, #12]
    87b0:	e1833402 	orr	r3, r3, r2, lsl #8
    87b4:	e0266193 	mla	r6, r3, r1, r6
    87b8:	e7974104 	ldr	r4, [r7, r4, lsl #2]
    87bc:	eaffffec 	b	8774 <read_cluster_chain+0x14>
    87c0:	00010be4 	.word	0x00010be4

000087c4 <get_dirents>:
    87c4:	e92d41f0 	push	{r4, r5, r6, r7, r8, lr}
    87c8:	e1a06000 	mov	r6, r0
    87cc:	e1a08001 	mov	r8, r1
    87d0:	e1a07002 	mov	r7, r2
    87d4:	ebffffd5 	bl	8730 <get_cluster_chain_length>
    87d8:	e596400c 	ldr	r4, [r6, #12]
    87dc:	e0000490 	mul	r0, r0, r4
    87e0:	e59f3038 	ldr	r3, [pc, #56]	; 8820 <get_dirents+0x5c>
    87e4:	e5d3400b 	ldrb	r4, [r3, #11]
    87e8:	e5d3300c 	ldrb	r3, [r3, #12]
    87ec:	e1844403 	orr	r4, r4, r3, lsl #8
    87f0:	e0040094 	mul	r4, r4, r0
    87f4:	e1a00004 	mov	r0, r4
    87f8:	eb0014f3 	bl	dbcc <kmalloc>
    87fc:	e1a05000 	mov	r5, r0
    8800:	e1a02000 	mov	r2, r0
    8804:	e1a01008 	mov	r1, r8
    8808:	e1a00006 	mov	r0, r6
    880c:	ebffffd3 	bl	8760 <read_cluster_chain>
    8810:	e1a042a4 	lsr	r4, r4, #5
    8814:	e5874000 	str	r4, [r7]
    8818:	e1a00005 	mov	r0, r5
    881c:	e8bd81f0 	pop	{r4, r5, r6, r7, r8, pc}
    8820:	00010be4 	.word	0x00010be4

00008824 <dirent_convert>:
    8824:	e92d4030 	push	{r4, r5, lr}
    8828:	e24dd034 	sub	sp, sp, #52, 0	; 0x34
    882c:	e1a05000 	mov	r5, r0
    8830:	e1a04001 	mov	r4, r1
    8834:	e3a0202c 	mov	r2, #44, 0	; 0x2c
    8838:	e3a01000 	mov	r1, #0, 0
    883c:	e28d0004 	add	r0, sp, #4, 0
    8840:	eb001270 	bl	d208 <memset>
    8844:	e5d43014 	ldrb	r3, [r4, #20]
    8848:	e5d42015 	ldrb	r2, [r4, #21]
    884c:	e1832402 	orr	r2, r3, r2, lsl #8
    8850:	e5d4301a 	ldrb	r3, [r4, #26]
    8854:	e5d4101b 	ldrb	r1, [r4, #27]
    8858:	e1833401 	orr	r3, r3, r1, lsl #8
    885c:	e1833802 	orr	r3, r3, r2, lsl #16
    8860:	e58d3024 	str	r3, [sp, #36]	; 0x24
    8864:	e5d4300b 	ldrb	r3, [r4, #11]
    8868:	e3530010 	cmp	r3, #16, 0
    886c:	13a03000 	movne	r3, #0, 0
    8870:	03a03001 	moveq	r3, #1, 0
    8874:	e58d3028 	str	r3, [sp, #40]	; 0x28
    8878:	e5d4301c 	ldrb	r3, [r4, #28]
    887c:	e5d4201d 	ldrb	r2, [r4, #29]
    8880:	e1833402 	orr	r3, r3, r2, lsl #8
    8884:	e5d4201e 	ldrb	r2, [r4, #30]
    8888:	e1833802 	orr	r3, r3, r2, lsl #16
    888c:	e5d4201f 	ldrb	r2, [r4, #31]
    8890:	e1833c02 	orr	r3, r3, r2, lsl #24
    8894:	e58d302c 	str	r3, [sp, #44]	; 0x2c
    8898:	e3a0200b 	mov	r2, #11, 0
    889c:	e1a01004 	mov	r1, r4
    88a0:	e28d0014 	add	r0, sp, #20, 0
    88a4:	eb001243 	bl	d1b8 <memcpy>
    88a8:	e28d1004 	add	r1, sp, #4, 0
    88ac:	e1a00004 	mov	r0, r4
    88b0:	eb000859 	bl	aa1c <fat32_dirent_name>
    88b4:	e1a0e005 	mov	lr, r5
    88b8:	e28dc004 	add	ip, sp, #4, 0
    88bc:	e8bc000f 	ldm	ip!, {r0, r1, r2, r3}
    88c0:	e8ae000f 	stmia	lr!, {r0, r1, r2, r3}
    88c4:	e8bc000f 	ldm	ip!, {r0, r1, r2, r3}
    88c8:	e8ae000f 	stmia	lr!, {r0, r1, r2, r3}
    88cc:	e89c0007 	ldm	ip, {r0, r1, r2}
    88d0:	e88e0007 	stm	lr, {r0, r1, r2}
    88d4:	e1a00005 	mov	r0, r5
    88d8:	e28dd034 	add	sp, sp, #52, 0	; 0x34
    88dc:	e8bd8030 	pop	{r4, r5, pc}

000088e0 <fat32_mk>:
    88e0:	e92d47f0 	push	{r4, r5, r6, r7, r8, r9, sl, lr}
    88e4:	e24dd008 	sub	sp, sp, #8, 0
    88e8:	e59f321c 	ldr	r3, [pc, #540]	; 8b0c <fat32_mk+0x22c>
    88ec:	e5933000 	ldr	r3, [r3]
    88f0:	e3530000 	cmp	r3, #0, 0
    88f4:	1a000074 	bne	8acc <fat32_mk+0x1ec>
    88f8:	e1a05000 	mov	r5, r0
    88fc:	e1a04001 	mov	r4, r1
    8900:	e5d13008 	ldrb	r3, [r1, #8]
    8904:	e5d10009 	ldrb	r0, [r1, #9]
    8908:	e1833400 	orr	r3, r3, r0, lsl #8
    890c:	e5d1000a 	ldrb	r0, [r1, #10]
    8910:	e1833800 	orr	r3, r3, r0, lsl #16
    8914:	e5d1000b 	ldrb	r0, [r1, #11]
    8918:	e3a01001 	mov	r1, #1, 0
    891c:	e1830c00 	orr	r0, r3, r0, lsl #24
    8920:	eb0002e7 	bl	94c4 <pi_sec_read>
    8924:	e1a06000 	mov	r6, r0
    8928:	e59f71e0 	ldr	r7, [pc, #480]	; 8b10 <fat32_mk+0x230>
    892c:	e3a02c02 	mov	r2, #512	; 0x200
    8930:	e1a01000 	mov	r1, r0
    8934:	e1a00007 	mov	r0, r7
    8938:	eb00121e 	bl	d1b8 <memcpy>
    893c:	e1a00006 	mov	r0, r6
    8940:	eb0005bc 	bl	a038 <fat32_volume_id_check>
    8944:	e1a01006 	mov	r1, r6
    8948:	e59f01c4 	ldr	r0, [pc, #452]	; 8b14 <fat32_mk+0x234>
    894c:	eb000666 	bl	a2ec <fat32_volume_id_print>
    8950:	e5d73030 	ldrb	r3, [r7, #48]	; 0x30
    8954:	e5d72031 	ldrb	r2, [r7, #49]	; 0x31
    8958:	e1833402 	orr	r3, r3, r2, lsl #8
    895c:	e3530001 	cmp	r3, #1, 0
    8960:	1a000061 	bne	8aec <fat32_mk+0x20c>
    8964:	e5d40008 	ldrb	r0, [r4, #8]
    8968:	e5d43009 	ldrb	r3, [r4, #9]
    896c:	e1800403 	orr	r0, r0, r3, lsl #8
    8970:	e5d4300a 	ldrb	r3, [r4, #10]
    8974:	e1800803 	orr	r0, r0, r3, lsl #16
    8978:	e5d4300b 	ldrb	r3, [r4, #11]
    897c:	e1800c03 	orr	r0, r0, r3, lsl #24
    8980:	e3a01001 	mov	r1, #1, 0
    8984:	e0800001 	add	r0, r0, r1
    8988:	eb0002cd 	bl	94c4 <pi_sec_read>
    898c:	e1a06000 	mov	r6, r0
    8990:	eb00071f 	bl	a614 <fat32_fsinfo_check>
    8994:	e1a01006 	mov	r1, r6
    8998:	e59f0178 	ldr	r0, [pc, #376]	; 8b18 <fat32_mk+0x238>
    899c:	eb000701 	bl	a5a8 <fat32_fsinfo_print>
    89a0:	e5d47008 	ldrb	r7, [r4, #8]
    89a4:	e5d43009 	ldrb	r3, [r4, #9]
    89a8:	e1877403 	orr	r7, r7, r3, lsl #8
    89ac:	e5d4300a 	ldrb	r3, [r4, #10]
    89b0:	e1877803 	orr	r7, r7, r3, lsl #16
    89b4:	e5d4300b 	ldrb	r3, [r4, #11]
    89b8:	e1877c03 	orr	r7, r7, r3, lsl #24
    89bc:	e59f314c 	ldr	r3, [pc, #332]	; 8b10 <fat32_mk+0x230>
    89c0:	e5d3600e 	ldrb	r6, [r3, #14]
    89c4:	e5d3200f 	ldrb	r2, [r3, #15]
    89c8:	e1866402 	orr	r6, r6, r2, lsl #8
    89cc:	e0866007 	add	r6, r6, r7
    89d0:	e5d38010 	ldrb	r8, [r3, #16]
    89d4:	e5d31024 	ldrb	r1, [r3, #36]	; 0x24
    89d8:	e5d32025 	ldrb	r2, [r3, #37]	; 0x25
    89dc:	e1811402 	orr	r1, r1, r2, lsl #8
    89e0:	e5d32026 	ldrb	r2, [r3, #38]	; 0x26
    89e4:	e1811802 	orr	r1, r1, r2, lsl #16
    89e8:	e5d32027 	ldrb	r2, [r3, #39]	; 0x27
    89ec:	e1811c02 	orr	r1, r1, r2, lsl #24
    89f0:	e0286891 	mla	r8, r1, r8, r6
    89f4:	e5d3900d 	ldrb	r9, [r3, #13]
    89f8:	e5d3402c 	ldrb	r4, [r3, #44]	; 0x2c
    89fc:	e5d3202d 	ldrb	r2, [r3, #45]	; 0x2d
    8a00:	e1844402 	orr	r4, r4, r2, lsl #8
    8a04:	e5d3202e 	ldrb	r2, [r3, #46]	; 0x2e
    8a08:	e1844802 	orr	r4, r4, r2, lsl #16
    8a0c:	e5d3202f 	ldrb	r2, [r3, #47]	; 0x2f
    8a10:	e1844c02 	orr	r4, r4, r2, lsl #24
    8a14:	e5d3a00b 	ldrb	sl, [r3, #11]
    8a18:	e5d3300c 	ldrb	r3, [r3, #12]
    8a1c:	e18aa403 	orr	sl, sl, r3, lsl #8
    8a20:	e1a0a2aa 	lsr	sl, sl, #5
    8a24:	e00a019a 	mul	sl, sl, r1
    8a28:	e1a00006 	mov	r0, r6
    8a2c:	eb0002a4 	bl	94c4 <pi_sec_read>
    8a30:	e5857000 	str	r7, [r5]
    8a34:	e5856004 	str	r6, [r5, #4]
    8a38:	e5858008 	str	r8, [r5, #8]
    8a3c:	e585900c 	str	r9, [r5, #12]
    8a40:	e5854010 	str	r4, [r5, #16]
    8a44:	e5850014 	str	r0, [r5, #20]
    8a48:	e585a018 	str	sl, [r5, #24]
    8a4c:	e59fa0c8 	ldr	sl, [pc, #200]	; 8b1c <fat32_mk+0x23c>
    8a50:	e59f70c8 	ldr	r7, [pc, #200]	; 8b20 <fat32_mk+0x240>
    8a54:	e1a0100a 	mov	r1, sl
    8a58:	e1a00007 	mov	r0, r7
    8a5c:	eb00121c 	bl	d2d4 <printk>
    8a60:	e1a01006 	mov	r1, r6
    8a64:	e59f00b8 	ldr	r0, [pc, #184]	; 8b24 <fat32_mk+0x244>
    8a68:	eb001219 	bl	d2d4 <printk>
    8a6c:	e1a0100a 	mov	r1, sl
    8a70:	e1a00007 	mov	r0, r7
    8a74:	eb001216 	bl	d2d4 <printk>
    8a78:	e1a01008 	mov	r1, r8
    8a7c:	e59f00a4 	ldr	r0, [pc, #164]	; 8b28 <fat32_mk+0x248>
    8a80:	eb001213 	bl	d2d4 <printk>
    8a84:	e1a0100a 	mov	r1, sl
    8a88:	e1a00007 	mov	r0, r7
    8a8c:	eb001210 	bl	d2d4 <printk>
    8a90:	e1a01009 	mov	r1, r9
    8a94:	e59f0090 	ldr	r0, [pc, #144]	; 8b2c <fat32_mk+0x24c>
    8a98:	eb00120d 	bl	d2d4 <printk>
    8a9c:	e1a0100a 	mov	r1, sl
    8aa0:	e1a00007 	mov	r0, r7
    8aa4:	eb00120a 	bl	d2d4 <printk>
    8aa8:	e1a01004 	mov	r1, r4
    8aac:	e59f007c 	ldr	r0, [pc, #124]	; 8b30 <fat32_mk+0x250>
    8ab0:	eb001207 	bl	d2d4 <printk>
    8ab4:	e59f3050 	ldr	r3, [pc, #80]	; 8b0c <fat32_mk+0x22c>
    8ab8:	e3a02001 	mov	r2, #1, 0
    8abc:	e5832000 	str	r2, [r3]
    8ac0:	e1a00005 	mov	r0, r5
    8ac4:	e28dd008 	add	sp, sp, #8, 0
    8ac8:	e8bd87f0 	pop	{r4, r5, r6, r7, r8, r9, sl, pc}
    8acc:	e59f3060 	ldr	r3, [pc, #96]	; 8b34 <fat32_mk+0x254>
    8ad0:	e58d3000 	str	r3, [sp]
    8ad4:	e3a0300f 	mov	r3, #15, 0
    8ad8:	e59f203c 	ldr	r2, [pc, #60]	; 8b1c <fat32_mk+0x23c>
    8adc:	e59f1054 	ldr	r1, [pc, #84]	; 8b38 <fat32_mk+0x258>
    8ae0:	e59f0054 	ldr	r0, [pc, #84]	; 8b3c <fat32_mk+0x25c>
    8ae4:	eb0011fa 	bl	d2d4 <printk>
    8ae8:	eb001329 	bl	d794 <clean_reboot>
    8aec:	e59f304c 	ldr	r3, [pc, #76]	; 8b40 <fat32_mk+0x260>
    8af0:	e58d3000 	str	r3, [sp]
    8af4:	e3a0301a 	mov	r3, #26, 0
    8af8:	e59f201c 	ldr	r2, [pc, #28]	; 8b1c <fat32_mk+0x23c>
    8afc:	e59f1034 	ldr	r1, [pc, #52]	; 8b38 <fat32_mk+0x258>
    8b00:	e59f003c 	ldr	r0, [pc, #60]	; 8b44 <fat32_mk+0x264>
    8b04:	eb0011f2 	bl	d2d4 <printk>
    8b08:	eb001321 	bl	d794 <clean_reboot>
    8b0c:	000108bc 	.word	0x000108bc
    8b10:	00010be4 	.word	0x00010be4
    8b14:	0000e390 	.word	0x0000e390
    8b18:	0000e3bc 	.word	0x0000e3bc
    8b1c:	0000e5fc 	.word	0x0000e5fc
    8b20:	0000e310 	.word	0x0000e310
    8b24:	0000e3d4 	.word	0x0000e3d4
    8b28:	0000e3cc 	.word	0x0000e3cc
    8b2c:	0000e3e4 	.word	0x0000e3e4
    8b30:	0000e400 	.word	0x0000e400
    8b34:	0000e388 	.word	0x0000e388
    8b38:	0000e2f0 	.word	0x0000e2f0
    8b3c:	0000e334 	.word	0x0000e334
    8b40:	0000e39c 	.word	0x0000e39c
    8b44:	0000e094 	.word	0x0000e094

00008b48 <fat32_get_root>:
    8b48:	e59f3070 	ldr	r3, [pc, #112]	; 8bc0 <fat32_get_root+0x78>
    8b4c:	e5933000 	ldr	r3, [r3]
    8b50:	e3530000 	cmp	r3, #0, 0
    8b54:	0a00000f 	beq	8b98 <fat32_get_root+0x50>
    8b58:	e5911010 	ldr	r1, [r1, #16]
    8b5c:	e3a03000 	mov	r3, #0, 0
    8b60:	e1a02000 	mov	r2, r0
    8b64:	e4823004 	str	r3, [r2], #4
    8b68:	e5803004 	str	r3, [r0, #4]
    8b6c:	e5823004 	str	r3, [r2, #4]
    8b70:	e5823008 	str	r3, [r2, #8]
    8b74:	e5803010 	str	r3, [r0, #16]
    8b78:	e5803014 	str	r3, [r0, #20]
    8b7c:	e5803018 	str	r3, [r0, #24]
    8b80:	e580301c 	str	r3, [r0, #28]
    8b84:	e5801020 	str	r1, [r0, #32]
    8b88:	e3a02001 	mov	r2, #1, 0
    8b8c:	e5802024 	str	r2, [r0, #36]	; 0x24
    8b90:	e5803028 	str	r3, [r0, #40]	; 0x28
    8b94:	e12fff1e 	bx	lr
    8b98:	e52de004 	push	{lr}		; (str lr, [sp, #-4]!)
    8b9c:	e24dd00c 	sub	sp, sp, #12, 0
    8ba0:	e59f301c 	ldr	r3, [pc, #28]	; 8bc4 <fat32_get_root+0x7c>
    8ba4:	e58d3000 	str	r3, [sp]
    8ba8:	e3a0305b 	mov	r3, #91, 0	; 0x5b
    8bac:	e59f2014 	ldr	r2, [pc, #20]	; 8bc8 <fat32_get_root+0x80>
    8bb0:	e59f1014 	ldr	r1, [pc, #20]	; 8bcc <fat32_get_root+0x84>
    8bb4:	e59f0014 	ldr	r0, [pc, #20]	; 8bd0 <fat32_get_root+0x88>
    8bb8:	eb0011c5 	bl	d2d4 <printk>
    8bbc:	eb0012f4 	bl	d794 <clean_reboot>
    8bc0:	000108bc 	.word	0x000108bc
    8bc4:	0000e464 	.word	0x0000e464
    8bc8:	0000e608 	.word	0x0000e608
    8bcc:	0000e2f0 	.word	0x0000e2f0
    8bd0:	0000e420 	.word	0x0000e420

00008bd4 <fat32_readdir>:
    8bd4:	e92d47f0 	push	{r4, r5, r6, r7, r8, r9, sl, lr}
    8bd8:	e24dd040 	sub	sp, sp, #64, 0	; 0x40
    8bdc:	e1a03002 	mov	r3, r2
    8be0:	e59f211c 	ldr	r2, [pc, #284]	; 8d04 <fat32_readdir+0x130>
    8be4:	e5922000 	ldr	r2, [r2]
    8be8:	e3520000 	cmp	r2, #0, 0
    8bec:	0a000011 	beq	8c38 <fat32_readdir+0x64>
    8bf0:	e1a09000 	mov	r9, r0
    8bf4:	e1a00001 	mov	r0, r1
    8bf8:	e5932024 	ldr	r2, [r3, #36]	; 0x24
    8bfc:	e3520000 	cmp	r2, #0, 0
    8c00:	0a000014 	beq	8c58 <fat32_readdir+0x84>
    8c04:	e28d203c 	add	r2, sp, #60, 0	; 0x3c
    8c08:	e5931020 	ldr	r1, [r3, #32]
    8c0c:	ebfffeec 	bl	87c4 <get_dirents>
    8c10:	e1a07000 	mov	r7, r0
    8c14:	e59d003c 	ldr	r0, [sp, #60]	; 0x3c
    8c18:	e0803100 	add	r3, r0, r0, lsl #2
    8c1c:	e0800083 	add	r0, r0, r3, lsl #1
    8c20:	e1a00100 	lsl	r0, r0, #2
    8c24:	eb0013e8 	bl	dbcc <kmalloc>
    8c28:	e1a08000 	mov	r8, r0
    8c2c:	e3a05000 	mov	r5, #0, 0
    8c30:	e1a06005 	mov	r6, r5
    8c34:	ea00001f 	b	8cb8 <fat32_readdir+0xe4>
    8c38:	e59f30c8 	ldr	r3, [pc, #200]	; 8d08 <fat32_readdir+0x134>
    8c3c:	e58d3000 	str	r3, [sp]
    8c40:	e3a030af 	mov	r3, #175, 0	; 0xaf
    8c44:	e59f20c0 	ldr	r2, [pc, #192]	; 8d0c <fat32_readdir+0x138>
    8c48:	e59f10c0 	ldr	r1, [pc, #192]	; 8d10 <fat32_readdir+0x13c>
    8c4c:	e59f00c0 	ldr	r0, [pc, #192]	; 8d14 <fat32_readdir+0x140>
    8c50:	eb00119f 	bl	d2d4 <printk>
    8c54:	eb0012ce 	bl	d794 <clean_reboot>
    8c58:	e59f30b8 	ldr	r3, [pc, #184]	; 8d18 <fat32_readdir+0x144>
    8c5c:	e58d3000 	str	r3, [sp]
    8c60:	e3a030b0 	mov	r3, #176, 0	; 0xb0
    8c64:	e59f20a0 	ldr	r2, [pc, #160]	; 8d0c <fat32_readdir+0x138>
    8c68:	e59f10a0 	ldr	r1, [pc, #160]	; 8d10 <fat32_readdir+0x13c>
    8c6c:	e59f00a8 	ldr	r0, [pc, #168]	; 8d1c <fat32_readdir+0x148>
    8c70:	eb001197 	bl	d2d4 <printk>
    8c74:	eb0012c6 	bl	d794 <clean_reboot>
    8c78:	e086c106 	add	ip, r6, r6, lsl #2
    8c7c:	e086c08c 	add	ip, r6, ip, lsl #1
    8c80:	e088410c 	add	r4, r8, ip, lsl #2
    8c84:	e1a0100a 	mov	r1, sl
    8c88:	e28d0008 	add	r0, sp, #8, 0
    8c8c:	ebfffee4 	bl	8824 <dirent_convert>
    8c90:	e1a0c004 	mov	ip, r4
    8c94:	e28de008 	add	lr, sp, #8, 0
    8c98:	e8be000f 	ldm	lr!, {r0, r1, r2, r3}
    8c9c:	e8ac000f 	stmia	ip!, {r0, r1, r2, r3}
    8ca0:	e8be000f 	ldm	lr!, {r0, r1, r2, r3}
    8ca4:	e8ac000f 	stmia	ip!, {r0, r1, r2, r3}
    8ca8:	e89e0007 	ldm	lr, {r0, r1, r2}
    8cac:	e88c0007 	stm	ip, {r0, r1, r2}
    8cb0:	e2866001 	add	r6, r6, #1, 0
    8cb4:	e2855001 	add	r5, r5, #1, 0
    8cb8:	e59d303c 	ldr	r3, [sp, #60]	; 0x3c
    8cbc:	e1550003 	cmp	r5, r3
    8cc0:	2a00000a 	bcs	8cf0 <fat32_readdir+0x11c>
    8cc4:	e087a285 	add	sl, r7, r5, lsl #5
    8cc8:	e1a0000a 	mov	r0, sl
    8ccc:	eb0006d1 	bl	a818 <fat32_dirent_free>
    8cd0:	e3500000 	cmp	r0, #0, 0
    8cd4:	1afffff6 	bne	8cb4 <fat32_readdir+0xe0>
    8cd8:	e5da300b 	ldrb	r3, [sl, #11]
    8cdc:	e353000f 	cmp	r3, #15, 0
    8ce0:	0afffff3 	beq	8cb4 <fat32_readdir+0xe0>
    8ce4:	e3530008 	cmp	r3, #8, 0
    8ce8:	1affffe2 	bne	8c78 <fat32_readdir+0xa4>
    8cec:	eafffff0 	b	8cb4 <fat32_readdir+0xe0>
    8cf0:	e5898000 	str	r8, [r9]
    8cf4:	e5896004 	str	r6, [r9, #4]
    8cf8:	e1a00009 	mov	r0, r9
    8cfc:	e28dd040 	add	sp, sp, #64, 0	; 0x40
    8d00:	e8bd87f0 	pop	{r4, r5, r6, r7, r8, r9, sl, pc}
    8d04:	000108bc 	.word	0x000108bc
    8d08:	0000e464 	.word	0x0000e464
    8d0c:	0000e618 	.word	0x0000e618
    8d10:	0000e2f0 	.word	0x0000e2f0
    8d14:	0000e420 	.word	0x0000e420
    8d18:	0000e4b4 	.word	0x0000e4b4
    8d1c:	0000e46c 	.word	0x0000e46c

00008d20 <fat32_stat>:
    8d20:	e92d43f0 	push	{r4, r5, r6, r7, r8, r9, lr}
    8d24:	e24dd044 	sub	sp, sp, #68, 0	; 0x44
    8d28:	e59f3120 	ldr	r3, [pc, #288]	; 8e50 <fat32_stat+0x130>
    8d2c:	e5933000 	ldr	r3, [r3]
    8d30:	e3530000 	cmp	r3, #0, 0
    8d34:	0a00000c 	beq	8d6c <fat32_stat+0x4c>
    8d38:	e1a07002 	mov	r7, r2
    8d3c:	e5913024 	ldr	r3, [r1, #36]	; 0x24
    8d40:	e3530000 	cmp	r3, #0, 0
    8d44:	0a000010 	beq	8d8c <fat32_stat+0x6c>
    8d48:	e28d203c 	add	r2, sp, #60, 0	; 0x3c
    8d4c:	e5911020 	ldr	r1, [r1, #32]
    8d50:	ebfffe9b 	bl	87c4 <get_dirents>
    8d54:	e1a06000 	mov	r6, r0
    8d58:	e3a0002c 	mov	r0, #44, 0	; 0x2c
    8d5c:	eb00139a 	bl	dbcc <kmalloc>
    8d60:	e1a08000 	mov	r8, r0
    8d64:	e3a04000 	mov	r4, #0, 0
    8d68:	ea000010 	b	8db0 <fat32_stat+0x90>
    8d6c:	e59f30e0 	ldr	r3, [pc, #224]	; 8e54 <fat32_stat+0x134>
    8d70:	e58d3000 	str	r3, [sp]
    8d74:	e3a030d9 	mov	r3, #217, 0	; 0xd9
    8d78:	e59f20d8 	ldr	r2, [pc, #216]	; 8e58 <fat32_stat+0x138>
    8d7c:	e59f10d8 	ldr	r1, [pc, #216]	; 8e5c <fat32_stat+0x13c>
    8d80:	e59f00d8 	ldr	r0, [pc, #216]	; 8e60 <fat32_stat+0x140>
    8d84:	eb001152 	bl	d2d4 <printk>
    8d88:	eb001281 	bl	d794 <clean_reboot>
    8d8c:	e59f30d0 	ldr	r3, [pc, #208]	; 8e64 <fat32_stat+0x144>
    8d90:	e58d3000 	str	r3, [sp]
    8d94:	e3a030da 	mov	r3, #218, 0	; 0xda
    8d98:	e59f20b8 	ldr	r2, [pc, #184]	; 8e58 <fat32_stat+0x138>
    8d9c:	e59f10b8 	ldr	r1, [pc, #184]	; 8e5c <fat32_stat+0x13c>
    8da0:	e59f00c0 	ldr	r0, [pc, #192]	; 8e68 <fat32_stat+0x148>
    8da4:	eb00114a 	bl	d2d4 <printk>
    8da8:	eb001279 	bl	d794 <clean_reboot>
    8dac:	e2844001 	add	r4, r4, #1, 0
    8db0:	e59d303c 	ldr	r3, [sp, #60]	; 0x3c
    8db4:	e1540003 	cmp	r4, r3
    8db8:	2a000020 	bcs	8e40 <fat32_stat+0x120>
    8dbc:	e0865284 	add	r5, r6, r4, lsl #5
    8dc0:	e1a00005 	mov	r0, r5
    8dc4:	eb000693 	bl	a818 <fat32_dirent_free>
    8dc8:	e3500000 	cmp	r0, #0, 0
    8dcc:	1afffff6 	bne	8dac <fat32_stat+0x8c>
    8dd0:	e5d5300b 	ldrb	r3, [r5, #11]
    8dd4:	e353000f 	cmp	r3, #15, 0
    8dd8:	0afffff3 	beq	8dac <fat32_stat+0x8c>
    8ddc:	e3530008 	cmp	r3, #8, 0
    8de0:	0afffff1 	beq	8dac <fat32_stat+0x8c>
    8de4:	e3a0000c 	mov	r0, #12, 0
    8de8:	eb001377 	bl	dbcc <kmalloc>
    8dec:	e1a09000 	mov	r9, r0
    8df0:	e1a01000 	mov	r1, r0
    8df4:	e1a00005 	mov	r0, r5
    8df8:	eb000707 	bl	aa1c <fat32_dirent_name>
    8dfc:	e1a01009 	mov	r1, r9
    8e00:	e1a00007 	mov	r0, r7
    8e04:	eb001248 	bl	d72c <strcmp>
    8e08:	e3500000 	cmp	r0, #0, 0
    8e0c:	1affffe6 	bne	8dac <fat32_stat+0x8c>
    8e10:	e1a01005 	mov	r1, r5
    8e14:	e28d0008 	add	r0, sp, #8, 0
    8e18:	ebfffe81 	bl	8824 <dirent_convert>
    8e1c:	e1a0e008 	mov	lr, r8
    8e20:	e28dc008 	add	ip, sp, #8, 0
    8e24:	e8bc000f 	ldm	ip!, {r0, r1, r2, r3}
    8e28:	e8ae000f 	stmia	lr!, {r0, r1, r2, r3}
    8e2c:	e8bc000f 	ldm	ip!, {r0, r1, r2, r3}
    8e30:	e8ae000f 	stmia	lr!, {r0, r1, r2, r3}
    8e34:	e89c0007 	ldm	ip, {r0, r1, r2}
    8e38:	e88e0007 	stm	lr, {r0, r1, r2}
    8e3c:	ea000000 	b	8e44 <fat32_stat+0x124>
    8e40:	e3a08000 	mov	r8, #0, 0
    8e44:	e1a00008 	mov	r0, r8
    8e48:	e28dd044 	add	sp, sp, #68, 0	; 0x44
    8e4c:	e8bd83f0 	pop	{r4, r5, r6, r7, r8, r9, pc}
    8e50:	000108bc 	.word	0x000108bc
    8e54:	0000e464 	.word	0x0000e464
    8e58:	0000e628 	.word	0x0000e628
    8e5c:	0000e2f0 	.word	0x0000e2f0
    8e60:	0000e420 	.word	0x0000e420
    8e64:	0000e518 	.word	0x0000e518
    8e68:	0000e4c8 	.word	0x0000e4c8

00008e6c <fat32_read>:
    8e6c:	e92d40f0 	push	{r4, r5, r6, r7, lr}
    8e70:	e24dd014 	sub	sp, sp, #20, 0
    8e74:	e59f30e4 	ldr	r3, [pc, #228]	; 8f60 <fat32_read+0xf4>
    8e78:	e5933000 	ldr	r3, [r3]
    8e7c:	e3530000 	cmp	r3, #0, 0
    8e80:	0a000026 	beq	8f20 <fat32_read+0xb4>
    8e84:	e1a04000 	mov	r4, r0
    8e88:	e1a05001 	mov	r5, r1
    8e8c:	e1a06002 	mov	r6, r2
    8e90:	e5913024 	ldr	r3, [r1, #36]	; 0x24
    8e94:	e3530000 	cmp	r3, #0, 0
    8e98:	0a000028 	beq	8f40 <fat32_read+0xd4>
    8e9c:	e28d200c 	add	r2, sp, #12, 0
    8ea0:	e5911020 	ldr	r1, [r1, #32]
    8ea4:	ebfffe46 	bl	87c4 <get_dirents>
    8ea8:	e1a02006 	mov	r2, r6
    8eac:	e1a01005 	mov	r1, r5
    8eb0:	e1a00004 	mov	r0, r4
    8eb4:	ebffff99 	bl	8d20 <fat32_stat>
    8eb8:	e1a06000 	mov	r6, r0
    8ebc:	e5901020 	ldr	r1, [r0, #32]
    8ec0:	e1a00004 	mov	r0, r4
    8ec4:	ebfffe19 	bl	8730 <get_cluster_chain_length>
    8ec8:	e59f3094 	ldr	r3, [pc, #148]	; 8f64 <fat32_read+0xf8>
    8ecc:	e5d3500d 	ldrb	r5, [r3, #13]
    8ed0:	e0000590 	mul	r0, r0, r5
    8ed4:	e5d3500b 	ldrb	r5, [r3, #11]
    8ed8:	e5d3300c 	ldrb	r3, [r3, #12]
    8edc:	e1855403 	orr	r5, r5, r3, lsl #8
    8ee0:	e0050095 	mul	r5, r5, r0
    8ee4:	e1a00005 	mov	r0, r5
    8ee8:	eb001337 	bl	dbcc <kmalloc>
    8eec:	e1a07000 	mov	r7, r0
    8ef0:	e1a02000 	mov	r2, r0
    8ef4:	e5961020 	ldr	r1, [r6, #32]
    8ef8:	e1a00004 	mov	r0, r4
    8efc:	ebfffe17 	bl	8760 <read_cluster_chain>
    8f00:	e3a0000c 	mov	r0, #12, 0
    8f04:	eb001330 	bl	dbcc <kmalloc>
    8f08:	e5962028 	ldr	r2, [r6, #40]	; 0x28
    8f0c:	e5807000 	str	r7, [r0]
    8f10:	e5805004 	str	r5, [r0, #4]
    8f14:	e5802008 	str	r2, [r0, #8]
    8f18:	e28dd014 	add	sp, sp, #20, 0
    8f1c:	e8bd80f0 	pop	{r4, r5, r6, r7, pc}
    8f20:	e59f3040 	ldr	r3, [pc, #64]	; 8f68 <fat32_read+0xfc>
    8f24:	e58d3000 	str	r3, [sp]
    8f28:	e3a030fd 	mov	r3, #253, 0	; 0xfd
    8f2c:	e59f2038 	ldr	r2, [pc, #56]	; 8f6c <fat32_read+0x100>
    8f30:	e59f1038 	ldr	r1, [pc, #56]	; 8f70 <fat32_read+0x104>
    8f34:	e59f0038 	ldr	r0, [pc, #56]	; 8f74 <fat32_read+0x108>
    8f38:	eb0010e5 	bl	d2d4 <printk>
    8f3c:	eb001214 	bl	d794 <clean_reboot>
    8f40:	e59f3030 	ldr	r3, [pc, #48]	; 8f78 <fat32_read+0x10c>
    8f44:	e58d3000 	str	r3, [sp]
    8f48:	e3a030fe 	mov	r3, #254, 0	; 0xfe
    8f4c:	e59f2018 	ldr	r2, [pc, #24]	; 8f6c <fat32_read+0x100>
    8f50:	e59f1018 	ldr	r1, [pc, #24]	; 8f70 <fat32_read+0x104>
    8f54:	e59f0020 	ldr	r0, [pc, #32]	; 8f7c <fat32_read+0x110>
    8f58:	eb0010dd 	bl	d2d4 <printk>
    8f5c:	eb00120c 	bl	d794 <clean_reboot>
    8f60:	000108bc 	.word	0x000108bc
    8f64:	00010be4 	.word	0x00010be4
    8f68:	0000e464 	.word	0x0000e464
    8f6c:	0000e634 	.word	0x0000e634
    8f70:	0000e2f0 	.word	0x0000e2f0
    8f74:	0000e420 	.word	0x0000e420
    8f78:	0000e518 	.word	0x0000e518
    8f7c:	0000e52c 	.word	0x0000e52c

00008f80 <fat32_rename>:
    8f80:	e92d4030 	push	{r4, r5, lr}
    8f84:	e24dd00c 	sub	sp, sp, #12, 0
    8f88:	e1a04003 	mov	r4, r3
    8f8c:	e59f307c 	ldr	r3, [pc, #124]	; 9010 <fat32_rename+0x90>
    8f90:	e5933000 	ldr	r3, [r3]
    8f94:	e3530000 	cmp	r3, #0, 0
    8f98:	0a00000e 	beq	8fd8 <fat32_rename+0x58>
    8f9c:	e1a05002 	mov	r5, r2
    8fa0:	e59f106c 	ldr	r1, [pc, #108]	; 9014 <fat32_rename+0x94>
    8fa4:	e59f006c 	ldr	r0, [pc, #108]	; 9018 <fat32_rename+0x98>
    8fa8:	eb0010c9 	bl	d2d4 <printk>
    8fac:	e1a02004 	mov	r2, r4
    8fb0:	e1a01005 	mov	r1, r5
    8fb4:	e59f0060 	ldr	r0, [pc, #96]	; 901c <fat32_rename+0x9c>
    8fb8:	eb0010c5 	bl	d2d4 <printk>
    8fbc:	e1a00004 	mov	r0, r4
    8fc0:	eb00069c 	bl	aa38 <fat32_is_valid_name>
    8fc4:	e3500000 	cmp	r0, #0, 0
    8fc8:	1a00000a 	bne	8ff8 <fat32_rename+0x78>
    8fcc:	e3a00000 	mov	r0, #0, 0
    8fd0:	e28dd00c 	add	sp, sp, #12, 0
    8fd4:	e8bd8030 	pop	{r4, r5, pc}
    8fd8:	e59f3040 	ldr	r3, [pc, #64]	; 9020 <fat32_rename+0xa0>
    8fdc:	e58d3000 	str	r3, [sp]
    8fe0:	e59f303c 	ldr	r3, [pc, #60]	; 9024 <fat32_rename+0xa4>
    8fe4:	e59f2028 	ldr	r2, [pc, #40]	; 9014 <fat32_rename+0x94>
    8fe8:	e59f1038 	ldr	r1, [pc, #56]	; 9028 <fat32_rename+0xa8>
    8fec:	e59f0038 	ldr	r0, [pc, #56]	; 902c <fat32_rename+0xac>
    8ff0:	eb0010b7 	bl	d2d4 <printk>
    8ff4:	eb0011e6 	bl	d794 <clean_reboot>
    8ff8:	e3a03f59 	mov	r3, #356	; 0x164
    8ffc:	e59f2010 	ldr	r2, [pc, #16]	; 9014 <fat32_rename+0x94>
    9000:	e59f1020 	ldr	r1, [pc, #32]	; 9028 <fat32_rename+0xa8>
    9004:	e59f0024 	ldr	r0, [pc, #36]	; 9030 <fat32_rename+0xb0>
    9008:	eb0010b1 	bl	d2d4 <printk>
    900c:	eb0011e0 	bl	d794 <clean_reboot>
    9010:	000108bc 	.word	0x000108bc
    9014:	0000e640 	.word	0x0000e640
    9018:	0000e310 	.word	0x0000e310
    901c:	0000e57c 	.word	0x0000e57c
    9020:	0000e464 	.word	0x0000e464
    9024:	0000015f 	.word	0x0000015f
    9028:	0000e2f0 	.word	0x0000e2f0
    902c:	0000e420 	.word	0x0000e420
    9030:	0000e590 	.word	0x0000e590

00009034 <fat32_create>:
    9034:	e92d4010 	push	{r4, lr}
    9038:	e24dd008 	sub	sp, sp, #8, 0
    903c:	e59f3078 	ldr	r3, [pc, #120]	; 90bc <fat32_create+0x88>
    9040:	e5933000 	ldr	r3, [r3]
    9044:	e3530000 	cmp	r3, #0, 0
    9048:	0a00000d 	beq	9084 <fat32_create+0x50>
    904c:	e1a04002 	mov	r4, r2
    9050:	e59f1068 	ldr	r1, [pc, #104]	; 90c0 <fat32_create+0x8c>
    9054:	e59f0068 	ldr	r0, [pc, #104]	; 90c4 <fat32_create+0x90>
    9058:	eb00109d 	bl	d2d4 <printk>
    905c:	e1a01004 	mov	r1, r4
    9060:	e59f0060 	ldr	r0, [pc, #96]	; 90c8 <fat32_create+0x94>
    9064:	eb00109a 	bl	d2d4 <printk>
    9068:	e1a00004 	mov	r0, r4
    906c:	eb000671 	bl	aa38 <fat32_is_valid_name>
    9070:	e3500000 	cmp	r0, #0, 0
    9074:	1a00000a 	bne	90a4 <fat32_create+0x70>
    9078:	e3a00000 	mov	r0, #0, 0
    907c:	e28dd008 	add	sp, sp, #8, 0
    9080:	e8bd8010 	pop	{r4, pc}
    9084:	e59f3040 	ldr	r3, [pc, #64]	; 90cc <fat32_create+0x98>
    9088:	e58d3000 	str	r3, [sp]
    908c:	e59f303c 	ldr	r3, [pc, #60]	; 90d0 <fat32_create+0x9c>
    9090:	e59f2028 	ldr	r2, [pc, #40]	; 90c0 <fat32_create+0x8c>
    9094:	e59f1038 	ldr	r1, [pc, #56]	; 90d4 <fat32_create+0xa0>
    9098:	e59f0038 	ldr	r0, [pc, #56]	; 90d8 <fat32_create+0xa4>
    909c:	eb00108c 	bl	d2d4 <printk>
    90a0:	eb0011bb 	bl	d794 <clean_reboot>
    90a4:	e3a03f5e 	mov	r3, #376	; 0x178
    90a8:	e59f2010 	ldr	r2, [pc, #16]	; 90c0 <fat32_create+0x8c>
    90ac:	e59f1020 	ldr	r1, [pc, #32]	; 90d4 <fat32_create+0xa0>
    90b0:	e59f0024 	ldr	r0, [pc, #36]	; 90dc <fat32_create+0xa8>
    90b4:	eb001086 	bl	d2d4 <printk>
    90b8:	eb0011b5 	bl	d794 <clean_reboot>
    90bc:	000108bc 	.word	0x000108bc
    90c0:	0000e650 	.word	0x0000e650
    90c4:	0000e310 	.word	0x0000e310
    90c8:	0000e5bc 	.word	0x0000e5bc
    90cc:	0000e464 	.word	0x0000e464
    90d0:	00000172 	.word	0x00000172
    90d4:	0000e2f0 	.word	0x0000e2f0
    90d8:	0000e420 	.word	0x0000e420
    90dc:	0000e590 	.word	0x0000e590

000090e0 <fat32_delete>:
    90e0:	e92d4010 	push	{r4, lr}
    90e4:	e24dd008 	sub	sp, sp, #8, 0
    90e8:	e59f3078 	ldr	r3, [pc, #120]	; 9168 <fat32_delete+0x88>
    90ec:	e5933000 	ldr	r3, [r3]
    90f0:	e3530000 	cmp	r3, #0, 0
    90f4:	0a00000d 	beq	9130 <fat32_delete+0x50>
    90f8:	e1a04002 	mov	r4, r2
    90fc:	e59f1068 	ldr	r1, [pc, #104]	; 916c <fat32_delete+0x8c>
    9100:	e59f0068 	ldr	r0, [pc, #104]	; 9170 <fat32_delete+0x90>
    9104:	eb001072 	bl	d2d4 <printk>
    9108:	e1a01004 	mov	r1, r4
    910c:	e59f0060 	ldr	r0, [pc, #96]	; 9174 <fat32_delete+0x94>
    9110:	eb00106f 	bl	d2d4 <printk>
    9114:	e1a00004 	mov	r0, r4
    9118:	eb000646 	bl	aa38 <fat32_is_valid_name>
    911c:	e3500000 	cmp	r0, #0, 0
    9120:	1a00000a 	bne	9150 <fat32_delete+0x70>
    9124:	e3a00000 	mov	r0, #0, 0
    9128:	e28dd008 	add	sp, sp, #8, 0
    912c:	e8bd8010 	pop	{r4, pc}
    9130:	e59f3040 	ldr	r3, [pc, #64]	; 9178 <fat32_delete+0x98>
    9134:	e58d3000 	str	r3, [sp]
    9138:	e59f303c 	ldr	r3, [pc, #60]	; 917c <fat32_delete+0x9c>
    913c:	e59f2028 	ldr	r2, [pc, #40]	; 916c <fat32_delete+0x8c>
    9140:	e59f1038 	ldr	r1, [pc, #56]	; 9180 <fat32_delete+0xa0>
    9144:	e59f0038 	ldr	r0, [pc, #56]	; 9184 <fat32_delete+0xa4>
    9148:	eb001061 	bl	d2d4 <printk>
    914c:	eb001190 	bl	d794 <clean_reboot>
    9150:	e59f3030 	ldr	r3, [pc, #48]	; 9188 <fat32_delete+0xa8>
    9154:	e59f2010 	ldr	r2, [pc, #16]	; 916c <fat32_delete+0x8c>
    9158:	e59f1020 	ldr	r1, [pc, #32]	; 9180 <fat32_delete+0xa0>
    915c:	e59f0028 	ldr	r0, [pc, #40]	; 918c <fat32_delete+0xac>
    9160:	eb00105b 	bl	d2d4 <printk>
    9164:	eb00118a 	bl	d794 <clean_reboot>
    9168:	000108bc 	.word	0x000108bc
    916c:	0000e660 	.word	0x0000e660
    9170:	0000e310 	.word	0x0000e310
    9174:	0000e5cc 	.word	0x0000e5cc
    9178:	0000e464 	.word	0x0000e464
    917c:	0000018e 	.word	0x0000018e
    9180:	0000e2f0 	.word	0x0000e2f0
    9184:	0000e420 	.word	0x0000e420
    9188:	00000193 	.word	0x00000193
    918c:	0000e590 	.word	0x0000e590

00009190 <fat32_truncate>:
    9190:	e52de004 	push	{lr}		; (str lr, [sp, #-4]!)
    9194:	e24dd00c 	sub	sp, sp, #12, 0
    9198:	e59f3060 	ldr	r3, [pc, #96]	; 9200 <fat32_truncate+0x70>
    919c:	e5933000 	ldr	r3, [r3]
    91a0:	e3530000 	cmp	r3, #0, 0
    91a4:	0a00000d 	beq	91e0 <fat32_truncate+0x50>
    91a8:	e1a04002 	mov	r4, r2
    91ac:	e59f5050 	ldr	r5, [pc, #80]	; 9204 <fat32_truncate+0x74>
    91b0:	e1a01005 	mov	r1, r5
    91b4:	e59f004c 	ldr	r0, [pc, #76]	; 9208 <fat32_truncate+0x78>
    91b8:	eb001045 	bl	d2d4 <printk>
    91bc:	e1a01004 	mov	r1, r4
    91c0:	e59f0044 	ldr	r0, [pc, #68]	; 920c <fat32_truncate+0x7c>
    91c4:	eb001042 	bl	d2d4 <printk>
    91c8:	e59f3040 	ldr	r3, [pc, #64]	; 9210 <fat32_truncate+0x80>
    91cc:	e1a02005 	mov	r2, r5
    91d0:	e59f103c 	ldr	r1, [pc, #60]	; 9214 <fat32_truncate+0x84>
    91d4:	e59f003c 	ldr	r0, [pc, #60]	; 9218 <fat32_truncate+0x88>
    91d8:	eb00103d 	bl	d2d4 <printk>
    91dc:	eb00116c 	bl	d794 <clean_reboot>
    91e0:	e59f3034 	ldr	r3, [pc, #52]	; 921c <fat32_truncate+0x8c>
    91e4:	e58d3000 	str	r3, [sp]
    91e8:	e59f3030 	ldr	r3, [pc, #48]	; 9220 <fat32_truncate+0x90>
    91ec:	e59f2010 	ldr	r2, [pc, #16]	; 9204 <fat32_truncate+0x74>
    91f0:	e59f101c 	ldr	r1, [pc, #28]	; 9214 <fat32_truncate+0x84>
    91f4:	e59f0028 	ldr	r0, [pc, #40]	; 9224 <fat32_truncate+0x94>
    91f8:	eb001035 	bl	d2d4 <printk>
    91fc:	eb001164 	bl	d794 <clean_reboot>
    9200:	000108bc 	.word	0x000108bc
    9204:	0000e670 	.word	0x0000e670
    9208:	0000e310 	.word	0x0000e310
    920c:	0000e5dc 	.word	0x0000e5dc
    9210:	000001a7 	.word	0x000001a7
    9214:	0000e2f0 	.word	0x0000e2f0
    9218:	0000e590 	.word	0x0000e590
    921c:	0000e464 	.word	0x0000e464
    9220:	0000019e 	.word	0x0000019e
    9224:	0000e420 	.word	0x0000e420

00009228 <fat32_write>:
    9228:	e52de004 	push	{lr}		; (str lr, [sp, #-4]!)
    922c:	e24dd00c 	sub	sp, sp, #12, 0
    9230:	e59f306c 	ldr	r3, [pc, #108]	; 92a4 <fat32_write+0x7c>
    9234:	e5933000 	ldr	r3, [r3]
    9238:	e3530000 	cmp	r3, #0, 0
    923c:	0a00000a 	beq	926c <fat32_write+0x44>
    9240:	e5913024 	ldr	r3, [r1, #36]	; 0x24
    9244:	e3530000 	cmp	r3, #0, 0
    9248:	1a00000f 	bne	928c <fat32_write+0x64>
    924c:	e59f3054 	ldr	r3, [pc, #84]	; 92a8 <fat32_write+0x80>
    9250:	e58d3000 	str	r3, [sp]
    9254:	e3a03e1b 	mov	r3, #432	; 0x1b0
    9258:	e59f204c 	ldr	r2, [pc, #76]	; 92ac <fat32_write+0x84>
    925c:	e59f104c 	ldr	r1, [pc, #76]	; 92b0 <fat32_write+0x88>
    9260:	e59f004c 	ldr	r0, [pc, #76]	; 92b4 <fat32_write+0x8c>
    9264:	eb00101a 	bl	d2d4 <printk>
    9268:	eb001149 	bl	d794 <clean_reboot>
    926c:	e59f3044 	ldr	r3, [pc, #68]	; 92b8 <fat32_write+0x90>
    9270:	e58d3000 	str	r3, [sp]
    9274:	e59f3040 	ldr	r3, [pc, #64]	; 92bc <fat32_write+0x94>
    9278:	e59f202c 	ldr	r2, [pc, #44]	; 92ac <fat32_write+0x84>
    927c:	e59f102c 	ldr	r1, [pc, #44]	; 92b0 <fat32_write+0x88>
    9280:	e59f0038 	ldr	r0, [pc, #56]	; 92c0 <fat32_write+0x98>
    9284:	eb001012 	bl	d2d4 <printk>
    9288:	eb001141 	bl	d794 <clean_reboot>
    928c:	e59f3030 	ldr	r3, [pc, #48]	; 92c4 <fat32_write+0x9c>
    9290:	e59f2014 	ldr	r2, [pc, #20]	; 92ac <fat32_write+0x84>
    9294:	e59f1014 	ldr	r1, [pc, #20]	; 92b0 <fat32_write+0x88>
    9298:	e59f0028 	ldr	r0, [pc, #40]	; 92c8 <fat32_write+0xa0>
    929c:	eb00100c 	bl	d2d4 <printk>
    92a0:	eb00113b 	bl	d794 <clean_reboot>
    92a4:	000108bc 	.word	0x000108bc
    92a8:	0000e518 	.word	0x0000e518
    92ac:	0000e680 	.word	0x0000e680
    92b0:	0000e2f0 	.word	0x0000e2f0
    92b4:	0000e52c 	.word	0x0000e52c
    92b8:	0000e464 	.word	0x0000e464
    92bc:	000001af 	.word	0x000001af
    92c0:	0000e420 	.word	0x0000e420
    92c4:	000001bb 	.word	0x000001bb
    92c8:	0000e590 	.word	0x0000e590

000092cc <fat32_flush>:
    92cc:	e59f3038 	ldr	r3, [pc, #56]	; 930c <fat32_flush+0x40>
    92d0:	e5933000 	ldr	r3, [r3]
    92d4:	e3530000 	cmp	r3, #0, 0
    92d8:	0a000001 	beq	92e4 <fat32_flush+0x18>
    92dc:	e3a00000 	mov	r0, #0, 0
    92e0:	e12fff1e 	bx	lr
    92e4:	e52de004 	push	{lr}		; (str lr, [sp, #-4]!)
    92e8:	e24dd00c 	sub	sp, sp, #12, 0
    92ec:	e59f301c 	ldr	r3, [pc, #28]	; 9310 <fat32_flush+0x44>
    92f0:	e58d3000 	str	r3, [sp]
    92f4:	e59f3018 	ldr	r3, [pc, #24]	; 9314 <fat32_flush+0x48>
    92f8:	e59f2018 	ldr	r2, [pc, #24]	; 9318 <fat32_flush+0x4c>
    92fc:	e59f1018 	ldr	r1, [pc, #24]	; 931c <fat32_flush+0x50>
    9300:	e59f0018 	ldr	r0, [pc, #24]	; 9320 <fat32_flush+0x54>
    9304:	eb000ff2 	bl	d2d4 <printk>
    9308:	eb001121 	bl	d794 <clean_reboot>
    930c:	000108bc 	.word	0x000108bc
    9310:	0000e464 	.word	0x0000e464
    9314:	000001bf 	.word	0x000001bf
    9318:	0000e68c 	.word	0x0000e68c
    931c:	0000e2f0 	.word	0x0000e2f0
    9320:	0000e420 	.word	0x0000e420

00009324 <pi_sd_trace>:
    9324:	e59f3004 	ldr	r3, [pc, #4]	; 9330 <pi_sd_trace+0xc>
    9328:	e5830000 	str	r0, [r3]
    932c:	e12fff1e 	bx	lr
    9330:	000108c0 	.word	0x000108c0

00009334 <pi_sd_init>:
    9334:	e92d4010 	push	{r4, lr}
    9338:	eb000d95 	bl	c994 <emmc_init>
    933c:	e3500000 	cmp	r0, #0, 0
    9340:	0a000003 	beq	9354 <pi_sd_init+0x20>
    9344:	e3a00001 	mov	r0, #1, 0
    9348:	e59f301c 	ldr	r3, [pc, #28]	; 936c <pi_sd_init+0x38>
    934c:	e5830004 	str	r0, [r3, #4]
    9350:	e8bd8010 	pop	{r4, pc}
    9354:	e3a0301d 	mov	r3, #29, 0
    9358:	e59f2010 	ldr	r2, [pc, #16]	; 9370 <pi_sd_init+0x3c>
    935c:	e59f1010 	ldr	r1, [pc, #16]	; 9374 <pi_sd_init+0x40>
    9360:	e59f0010 	ldr	r0, [pc, #16]	; 9378 <pi_sd_init+0x44>
    9364:	eb000fda 	bl	d2d4 <printk>
    9368:	eb001109 	bl	d794 <clean_reboot>
    936c:	000108c0 	.word	0x000108c0
    9370:	0000e7f4 	.word	0x0000e7f4
    9374:	0000e698 	.word	0x0000e698
    9378:	0000e6a4 	.word	0x0000e6a4

0000937c <pi_sd_read>:
    937c:	e92d4070 	push	{r4, r5, r6, lr}
    9380:	e24dd008 	sub	sp, sp, #8, 0
    9384:	e59f3118 	ldr	r3, [pc, #280]	; 94a4 <pi_sd_read+0x128>
    9388:	e5933004 	ldr	r3, [r3, #4]
    938c:	e3530000 	cmp	r3, #0, 0
    9390:	0a00000f 	beq	93d4 <pi_sd_read+0x58>
    9394:	e1a06000 	mov	r6, r0
    9398:	e1a05001 	mov	r5, r1
    939c:	e1a04482 	lsl	r4, r2, #9
    93a0:	e1a02004 	mov	r2, r4
    93a4:	e1a01000 	mov	r1, r0
    93a8:	e1a00005 	mov	r0, r5
    93ac:	eb000d32 	bl	c87c <emmc_read>
    93b0:	e1500004 	cmp	r0, r4
    93b4:	1a00000e 	bne	93f4 <pi_sd_read+0x78>
    93b8:	e59f30e4 	ldr	r3, [pc, #228]	; 94a4 <pi_sd_read+0x128>
    93bc:	e5933000 	ldr	r3, [r3]
    93c0:	e3530000 	cmp	r3, #0, 0
    93c4:	1a000011 	bne	9410 <pi_sd_read+0x94>
    93c8:	e3a00001 	mov	r0, #1, 0
    93cc:	e28dd008 	add	sp, sp, #8, 0
    93d0:	e8bd8070 	pop	{r4, r5, r6, pc}
    93d4:	e59f30cc 	ldr	r3, [pc, #204]	; 94a8 <pi_sd_read+0x12c>
    93d8:	e58d3000 	str	r3, [sp]
    93dc:	e3a03023 	mov	r3, #35, 0	; 0x23
    93e0:	e59f20c4 	ldr	r2, [pc, #196]	; 94ac <pi_sd_read+0x130>
    93e4:	e59f10c4 	ldr	r1, [pc, #196]	; 94b0 <pi_sd_read+0x134>
    93e8:	e59f00c4 	ldr	r0, [pc, #196]	; 94b4 <pi_sd_read+0x138>
    93ec:	eb000fb8 	bl	d2d4 <printk>
    93f0:	eb0010e7 	bl	d794 <clean_reboot>
    93f4:	e58d0000 	str	r0, [sp]
    93f8:	e3a03026 	mov	r3, #38, 0	; 0x26
    93fc:	e59f20a8 	ldr	r2, [pc, #168]	; 94ac <pi_sd_read+0x130>
    9400:	e59f10a8 	ldr	r1, [pc, #168]	; 94b0 <pi_sd_read+0x134>
    9404:	e59f00ac 	ldr	r0, [pc, #172]	; 94b8 <pi_sd_read+0x13c>
    9408:	eb000fb1 	bl	d2d4 <printk>
    940c:	eb0010e0 	bl	d794 <clean_reboot>
    9410:	e59f1094 	ldr	r1, [pc, #148]	; 94ac <pi_sd_read+0x130>
    9414:	e59f00a0 	ldr	r0, [pc, #160]	; 94bc <pi_sd_read+0x140>
    9418:	eb000fad 	bl	d2d4 <printk>
    941c:	e16f3f16 	clz	r3, r6
    9420:	e1a032a3 	lsr	r3, r3, #5
    9424:	e3540000 	cmp	r4, #0, 0
    9428:	03a03001 	moveq	r3, #1, 0
    942c:	e3530000 	cmp	r3, #0, 0
    9430:	1a000019 	bne	949c <pi_sd_read+0x120>
    9434:	e1a03124 	lsr	r3, r4, #2
    9438:	e3530000 	cmp	r3, #0, 0
    943c:	0a00000c 	beq	9474 <pi_sd_read+0xf8>
    9440:	e5d61001 	ldrb	r1, [r6, #1]
    9444:	e5d62000 	ldrb	r2, [r6]
    9448:	e0822401 	add	r2, r2, r1, lsl #8
    944c:	e0822004 	add	r2, r2, r4
    9450:	e5d61003 	ldrb	r1, [r6, #3]
    9454:	e5d64002 	ldrb	r4, [r6, #2]
    9458:	e0844401 	add	r4, r4, r1, lsl #8
    945c:	e0224584 	eor	r4, r2, r4, lsl #11
    9460:	e0244802 	eor	r4, r4, r2, lsl #16
    9464:	e2866004 	add	r6, r6, #4, 0
    9468:	e08445a4 	add	r4, r4, r4, lsr #11
    946c:	e2433001 	sub	r3, r3, #1, 0
    9470:	eafffff0 	b	9438 <pi_sd_read+0xbc>
    9474:	e0242184 	eor	r2, r4, r4, lsl #3
    9478:	e08222a2 	add	r2, r2, r2, lsr #5
    947c:	e0222202 	eor	r2, r2, r2, lsl #4
    9480:	e08228a2 	add	r2, r2, r2, lsr #17
    9484:	e0222c82 	eor	r2, r2, r2, lsl #25
    9488:	e0822322 	add	r2, r2, r2, lsr #6
    948c:	e1a01005 	mov	r1, r5
    9490:	e59f0028 	ldr	r0, [pc, #40]	; 94c0 <pi_sd_read+0x144>
    9494:	eb000f8e 	bl	d2d4 <printk>
    9498:	eaffffca 	b	93c8 <pi_sd_read+0x4c>
    949c:	e3a02000 	mov	r2, #0, 0
    94a0:	eafffff9 	b	948c <pi_sd_read+0x110>
    94a4:	000108c0 	.word	0x000108c0
    94a8:	0000e464 	.word	0x0000e464
    94ac:	0000e800 	.word	0x0000e800
    94b0:	0000e698 	.word	0x0000e698
    94b4:	0000e6c4 	.word	0x0000e6c4
    94b8:	0000e70c 	.word	0x0000e70c
    94bc:	0000e310 	.word	0x0000e310
    94c0:	0000e748 	.word	0x0000e748

000094c4 <pi_sec_read>:
    94c4:	e92d4070 	push	{r4, r5, r6, lr}
    94c8:	e24dd008 	sub	sp, sp, #8, 0
    94cc:	e59f3074 	ldr	r3, [pc, #116]	; 9548 <pi_sec_read+0x84>
    94d0:	e5933004 	ldr	r3, [r3, #4]
    94d4:	e3530000 	cmp	r3, #0, 0
    94d8:	0a00000c 	beq	9510 <pi_sec_read+0x4c>
    94dc:	e1a05000 	mov	r5, r0
    94e0:	e1a04001 	mov	r4, r1
    94e4:	e1a00481 	lsl	r0, r1, #9
    94e8:	eb0011b7 	bl	dbcc <kmalloc>
    94ec:	e1a06000 	mov	r6, r0
    94f0:	e1a02004 	mov	r2, r4
    94f4:	e1a01005 	mov	r1, r5
    94f8:	ebffff9f 	bl	937c <pi_sd_read>
    94fc:	e3500000 	cmp	r0, #0, 0
    9500:	0a00000a 	beq	9530 <pi_sec_read+0x6c>
    9504:	e1a00006 	mov	r0, r6
    9508:	e28dd008 	add	sp, sp, #8, 0
    950c:	e8bd8070 	pop	{r4, r5, r6, pc}
    9510:	e59f3034 	ldr	r3, [pc, #52]	; 954c <pi_sec_read+0x88>
    9514:	e58d3000 	str	r3, [sp]
    9518:	e3a03030 	mov	r3, #48, 0	; 0x30
    951c:	e59f202c 	ldr	r2, [pc, #44]	; 9550 <pi_sec_read+0x8c>
    9520:	e59f102c 	ldr	r1, [pc, #44]	; 9554 <pi_sec_read+0x90>
    9524:	e59f002c 	ldr	r0, [pc, #44]	; 9558 <pi_sec_read+0x94>
    9528:	eb000f69 	bl	d2d4 <printk>
    952c:	eb001098 	bl	d794 <clean_reboot>
    9530:	e3a03034 	mov	r3, #52, 0	; 0x34
    9534:	e59f2014 	ldr	r2, [pc, #20]	; 9550 <pi_sec_read+0x8c>
    9538:	e59f1014 	ldr	r1, [pc, #20]	; 9554 <pi_sec_read+0x90>
    953c:	e59f0018 	ldr	r0, [pc, #24]	; 955c <pi_sec_read+0x98>
    9540:	eb000f63 	bl	d2d4 <printk>
    9544:	eb001092 	bl	d794 <clean_reboot>
    9548:	000108c0 	.word	0x000108c0
    954c:	0000e464 	.word	0x0000e464
    9550:	0000e80c 	.word	0x0000e80c
    9554:	0000e698 	.word	0x0000e698
    9558:	0000e6c4 	.word	0x0000e6c4
    955c:	0000e768 	.word	0x0000e768

00009560 <pi_sd_write>:
    9560:	e92d4070 	push	{r4, r5, r6, lr}
    9564:	e24dd008 	sub	sp, sp, #8, 0
    9568:	e59f30b0 	ldr	r3, [pc, #176]	; 9620 <pi_sd_write+0xc0>
    956c:	e5933004 	ldr	r3, [r3, #4]
    9570:	e3530000 	cmp	r3, #0, 0
    9574:	0a00000f 	beq	95b8 <pi_sd_write+0x58>
    9578:	e1a06000 	mov	r6, r0
    957c:	e1a05001 	mov	r5, r1
    9580:	e1a04482 	lsl	r4, r2, #9
    9584:	e1a02004 	mov	r2, r4
    9588:	e1a01000 	mov	r1, r0
    958c:	e1a00005 	mov	r0, r5
    9590:	eb000cdd 	bl	c90c <emmc_write>
    9594:	e1500004 	cmp	r0, r4
    9598:	1a00000e 	bne	95d8 <pi_sd_write+0x78>
    959c:	e59f307c 	ldr	r3, [pc, #124]	; 9620 <pi_sd_write+0xc0>
    95a0:	e5933000 	ldr	r3, [r3]
    95a4:	e3530000 	cmp	r3, #0, 0
    95a8:	1a000011 	bne	95f4 <pi_sd_write+0x94>
    95ac:	e3a00001 	mov	r0, #1, 0
    95b0:	e28dd008 	add	sp, sp, #8, 0
    95b4:	e8bd8070 	pop	{r4, r5, r6, pc}
    95b8:	e59f3064 	ldr	r3, [pc, #100]	; 9624 <pi_sd_write+0xc4>
    95bc:	e58d3000 	str	r3, [sp]
    95c0:	e3a0303b 	mov	r3, #59, 0	; 0x3b
    95c4:	e59f205c 	ldr	r2, [pc, #92]	; 9628 <pi_sd_write+0xc8>
    95c8:	e59f105c 	ldr	r1, [pc, #92]	; 962c <pi_sd_write+0xcc>
    95cc:	e59f005c 	ldr	r0, [pc, #92]	; 9630 <pi_sd_write+0xd0>
    95d0:	eb000f3f 	bl	d2d4 <printk>
    95d4:	eb00106e 	bl	d794 <clean_reboot>
    95d8:	e58d0000 	str	r0, [sp]
    95dc:	e3a0303e 	mov	r3, #62, 0	; 0x3e
    95e0:	e59f2040 	ldr	r2, [pc, #64]	; 9628 <pi_sd_write+0xc8>
    95e4:	e59f1040 	ldr	r1, [pc, #64]	; 962c <pi_sd_write+0xcc>
    95e8:	e59f0044 	ldr	r0, [pc, #68]	; 9634 <pi_sd_write+0xd4>
    95ec:	eb000f38 	bl	d2d4 <printk>
    95f0:	eb001067 	bl	d794 <clean_reboot>
    95f4:	e59f102c 	ldr	r1, [pc, #44]	; 9628 <pi_sd_write+0xc8>
    95f8:	e59f0038 	ldr	r0, [pc, #56]	; 9638 <pi_sd_write+0xd8>
    95fc:	eb000f34 	bl	d2d4 <printk>
    9600:	e1a01004 	mov	r1, r4
    9604:	e1a00006 	mov	r0, r6
    9608:	eb000ed9 	bl	d174 <our_crc32>
    960c:	e1a02000 	mov	r2, r0
    9610:	e1a01005 	mov	r1, r5
    9614:	e59f0020 	ldr	r0, [pc, #32]	; 963c <pi_sd_write+0xdc>
    9618:	eb000f2d 	bl	d2d4 <printk>
    961c:	eaffffe2 	b	95ac <pi_sd_write+0x4c>
    9620:	000108c0 	.word	0x000108c0
    9624:	0000e464 	.word	0x0000e464
    9628:	0000e818 	.word	0x0000e818
    962c:	0000e698 	.word	0x0000e698
    9630:	0000e6c4 	.word	0x0000e6c4
    9634:	0000e798 	.word	0x0000e798
    9638:	0000e310 	.word	0x0000e310
    963c:	0000e7d4 	.word	0x0000e7d4

00009640 <mbr_get_partition>:
    9640:	e92d4010 	push	{r4, lr}
    9644:	e24dd018 	sub	sp, sp, #24, 0
    9648:	e3520003 	cmp	r2, #3, 0
    964c:	8a00000e 	bhi	968c <mbr_get_partition+0x4c>
    9650:	e1a04000 	mov	r4, r0
    9654:	e1a03002 	mov	r3, r2
    9658:	e2811f6f 	add	r1, r1, #444	; 0x1bc
    965c:	e2811002 	add	r1, r1, #2, 0
    9660:	e3a02010 	mov	r2, #16, 0
    9664:	e0811203 	add	r1, r1, r3, lsl #4
    9668:	e28d0008 	add	r0, sp, #8, 0
    966c:	eb000ed1 	bl	d1b8 <memcpy>
    9670:	e3a02010 	mov	r2, #16, 0
    9674:	e28d1008 	add	r1, sp, #8, 0
    9678:	e1a00004 	mov	r0, r4
    967c:	eb000ecd 	bl	d1b8 <memcpy>
    9680:	e1a00004 	mov	r0, r4
    9684:	e28dd018 	add	sp, sp, #24, 0
    9688:	e8bd8010 	pop	{r4, pc}
    968c:	e59f3018 	ldr	r3, [pc, #24]	; 96ac <mbr_get_partition+0x6c>
    9690:	e58d3000 	str	r3, [sp]
    9694:	e3a0301c 	mov	r3, #28, 0
    9698:	e59f2010 	ldr	r2, [pc, #16]	; 96b0 <mbr_get_partition+0x70>
    969c:	e59f1010 	ldr	r1, [pc, #16]	; 96b4 <mbr_get_partition+0x74>
    96a0:	e59f0010 	ldr	r0, [pc, #16]	; 96b8 <mbr_get_partition+0x78>
    96a4:	eb000f0a 	bl	d2d4 <printk>
    96a8:	eb001039 	bl	d794 <clean_reboot>
    96ac:	0000e838 	.word	0x0000e838
    96b0:	0000ec5c 	.word	0x0000ec5c
    96b4:	0000e824 	.word	0x0000e824
    96b8:	0000e094 	.word	0x0000e094

000096bc <mbr_part_str>:
    96bc:	e35000fc 	cmp	r0, #252, 0	; 0xfc
    96c0:	979ff100 	ldrls	pc, [pc, r0, lsl #2]
    96c4:	ea000140 	b	9bcc <mbr_part_str+0x510>
    96c8:	00009bf0 	.word	0x00009bf0
    96cc:	00009bf8 	.word	0x00009bf8
    96d0:	00009bcc 	.word	0x00009bcc
    96d4:	00009bcc 	.word	0x00009bcc
    96d8:	00009abc 	.word	0x00009abc
    96dc:	00009ac4 	.word	0x00009ac4
    96e0:	00009acc 	.word	0x00009acc
    96e4:	00009ad4 	.word	0x00009ad4
    96e8:	00009bcc 	.word	0x00009bcc
    96ec:	00009bcc 	.word	0x00009bcc
    96f0:	00009bcc 	.word	0x00009bcc
    96f4:	00009adc 	.word	0x00009adc
    96f8:	00009ae4 	.word	0x00009ae4
    96fc:	00009bcc 	.word	0x00009bcc
    9700:	00009aec 	.word	0x00009aec
    9704:	00009af4 	.word	0x00009af4
    9708:	00009bcc 	.word	0x00009bcc
    970c:	00009afc 	.word	0x00009afc
    9710:	00009bcc 	.word	0x00009bcc
    9714:	00009bcc 	.word	0x00009bcc
    9718:	00009b04 	.word	0x00009b04
    971c:	00009bcc 	.word	0x00009bcc
    9720:	00009b0c 	.word	0x00009b0c
    9724:	00009bcc 	.word	0x00009bcc
    9728:	00009bcc 	.word	0x00009bcc
    972c:	00009bcc 	.word	0x00009bcc
    9730:	00009bcc 	.word	0x00009bcc
    9734:	00009b14 	.word	0x00009b14
    9738:	00009b1c 	.word	0x00009b1c
    973c:	00009bcc 	.word	0x00009bcc
    9740:	00009b24 	.word	0x00009b24
    9744:	00009bcc 	.word	0x00009bcc
    9748:	00009bcc 	.word	0x00009bcc
    974c:	00009bcc 	.word	0x00009bcc
    9750:	00009bcc 	.word	0x00009bcc
    9754:	00009bcc 	.word	0x00009bcc
    9758:	00009bcc 	.word	0x00009bcc
    975c:	00009bcc 	.word	0x00009bcc
    9760:	00009bcc 	.word	0x00009bcc
    9764:	00009bcc 	.word	0x00009bcc
    9768:	00009bcc 	.word	0x00009bcc
    976c:	00009bcc 	.word	0x00009bcc
    9770:	00009bcc 	.word	0x00009bcc
    9774:	00009bcc 	.word	0x00009bcc
    9778:	00009bcc 	.word	0x00009bcc
    977c:	00009bcc 	.word	0x00009bcc
    9780:	00009bcc 	.word	0x00009bcc
    9784:	00009bcc 	.word	0x00009bcc
    9788:	00009bcc 	.word	0x00009bcc
    978c:	00009bcc 	.word	0x00009bcc
    9790:	00009bcc 	.word	0x00009bcc
    9794:	00009bcc 	.word	0x00009bcc
    9798:	00009bcc 	.word	0x00009bcc
    979c:	00009bcc 	.word	0x00009bcc
    97a0:	00009bcc 	.word	0x00009bcc
    97a4:	00009bcc 	.word	0x00009bcc
    97a8:	00009bcc 	.word	0x00009bcc
    97ac:	00009bcc 	.word	0x00009bcc
    97b0:	00009bcc 	.word	0x00009bcc
    97b4:	00009bcc 	.word	0x00009bcc
    97b8:	00009bcc 	.word	0x00009bcc
    97bc:	00009bcc 	.word	0x00009bcc
    97c0:	00009bcc 	.word	0x00009bcc
    97c4:	00009bcc 	.word	0x00009bcc
    97c8:	00009bcc 	.word	0x00009bcc
    97cc:	00009bcc 	.word	0x00009bcc
    97d0:	00009b2c 	.word	0x00009b2c
    97d4:	00009bcc 	.word	0x00009bcc
    97d8:	00009bcc 	.word	0x00009bcc
    97dc:	00009bcc 	.word	0x00009bcc
    97e0:	00009bcc 	.word	0x00009bcc
    97e4:	00009bcc 	.word	0x00009bcc
    97e8:	00009bcc 	.word	0x00009bcc
    97ec:	00009bcc 	.word	0x00009bcc
    97f0:	00009bcc 	.word	0x00009bcc
    97f4:	00009bcc 	.word	0x00009bcc
    97f8:	00009bcc 	.word	0x00009bcc
    97fc:	00009bcc 	.word	0x00009bcc
    9800:	00009bcc 	.word	0x00009bcc
    9804:	00009bcc 	.word	0x00009bcc
    9808:	00009bcc 	.word	0x00009bcc
    980c:	00009bcc 	.word	0x00009bcc
    9810:	00009bcc 	.word	0x00009bcc
    9814:	00009bcc 	.word	0x00009bcc
    9818:	00009bcc 	.word	0x00009bcc
    981c:	00009bcc 	.word	0x00009bcc
    9820:	00009bcc 	.word	0x00009bcc
    9824:	00009bcc 	.word	0x00009bcc
    9828:	00009bcc 	.word	0x00009bcc
    982c:	00009bcc 	.word	0x00009bcc
    9830:	00009bcc 	.word	0x00009bcc
    9834:	00009bcc 	.word	0x00009bcc
    9838:	00009bcc 	.word	0x00009bcc
    983c:	00009bcc 	.word	0x00009bcc
    9840:	00009bcc 	.word	0x00009bcc
    9844:	00009bcc 	.word	0x00009bcc
    9848:	00009bcc 	.word	0x00009bcc
    984c:	00009bcc 	.word	0x00009bcc
    9850:	00009bcc 	.word	0x00009bcc
    9854:	00009bcc 	.word	0x00009bcc
    9858:	00009bcc 	.word	0x00009bcc
    985c:	00009bcc 	.word	0x00009bcc
    9860:	00009bcc 	.word	0x00009bcc
    9864:	00009bcc 	.word	0x00009bcc
    9868:	00009bcc 	.word	0x00009bcc
    986c:	00009bcc 	.word	0x00009bcc
    9870:	00009bcc 	.word	0x00009bcc
    9874:	00009bcc 	.word	0x00009bcc
    9878:	00009bcc 	.word	0x00009bcc
    987c:	00009bcc 	.word	0x00009bcc
    9880:	00009bcc 	.word	0x00009bcc
    9884:	00009bcc 	.word	0x00009bcc
    9888:	00009bcc 	.word	0x00009bcc
    988c:	00009bcc 	.word	0x00009bcc
    9890:	00009bcc 	.word	0x00009bcc
    9894:	00009bcc 	.word	0x00009bcc
    9898:	00009bcc 	.word	0x00009bcc
    989c:	00009bcc 	.word	0x00009bcc
    98a0:	00009bcc 	.word	0x00009bcc
    98a4:	00009bcc 	.word	0x00009bcc
    98a8:	00009bcc 	.word	0x00009bcc
    98ac:	00009bcc 	.word	0x00009bcc
    98b0:	00009bcc 	.word	0x00009bcc
    98b4:	00009bcc 	.word	0x00009bcc
    98b8:	00009bcc 	.word	0x00009bcc
    98bc:	00009bcc 	.word	0x00009bcc
    98c0:	00009bcc 	.word	0x00009bcc
    98c4:	00009bcc 	.word	0x00009bcc
    98c8:	00009bcc 	.word	0x00009bcc
    98cc:	00009bcc 	.word	0x00009bcc
    98d0:	00009b34 	.word	0x00009b34
    98d4:	00009b3c 	.word	0x00009b3c
    98d8:	00009b44 	.word	0x00009b44
    98dc:	00009b4c 	.word	0x00009b4c
    98e0:	00009b54 	.word	0x00009b54
    98e4:	00009b5c 	.word	0x00009b5c
    98e8:	00009bcc 	.word	0x00009bcc
    98ec:	00009bcc 	.word	0x00009bcc
    98f0:	00009bcc 	.word	0x00009bcc
    98f4:	00009bcc 	.word	0x00009bcc
    98f8:	00009bcc 	.word	0x00009bcc
    98fc:	00009bcc 	.word	0x00009bcc
    9900:	00009bcc 	.word	0x00009bcc
    9904:	00009bcc 	.word	0x00009bcc
    9908:	00009bcc 	.word	0x00009bcc
    990c:	00009bcc 	.word	0x00009bcc
    9910:	00009bcc 	.word	0x00009bcc
    9914:	00009bcc 	.word	0x00009bcc
    9918:	00009bcc 	.word	0x00009bcc
    991c:	00009bcc 	.word	0x00009bcc
    9920:	00009bcc 	.word	0x00009bcc
    9924:	00009bcc 	.word	0x00009bcc
    9928:	00009bcc 	.word	0x00009bcc
    992c:	00009bcc 	.word	0x00009bcc
    9930:	00009bcc 	.word	0x00009bcc
    9934:	00009bcc 	.word	0x00009bcc
    9938:	00009bcc 	.word	0x00009bcc
    993c:	00009bcc 	.word	0x00009bcc
    9940:	00009bcc 	.word	0x00009bcc
    9944:	00009bcc 	.word	0x00009bcc
    9948:	00009b64 	.word	0x00009b64
    994c:	00009b6c 	.word	0x00009b6c
    9950:	00009bcc 	.word	0x00009bcc
    9954:	00009bcc 	.word	0x00009bcc
    9958:	00009bcc 	.word	0x00009bcc
    995c:	00009b74 	.word	0x00009b74
    9960:	00009b7c 	.word	0x00009b7c
    9964:	00009bcc 	.word	0x00009bcc
    9968:	00009b84 	.word	0x00009b84
    996c:	00009b8c 	.word	0x00009b8c
    9970:	00009bcc 	.word	0x00009bcc
    9974:	00009b94 	.word	0x00009b94
    9978:	00009bcc 	.word	0x00009bcc
    997c:	00009bcc 	.word	0x00009bcc
    9980:	00009bcc 	.word	0x00009bcc
    9984:	00009bcc 	.word	0x00009bcc
    9988:	00009bcc 	.word	0x00009bcc
    998c:	00009bcc 	.word	0x00009bcc
    9990:	00009bcc 	.word	0x00009bcc
    9994:	00009bcc 	.word	0x00009bcc
    9998:	00009bcc 	.word	0x00009bcc
    999c:	00009bcc 	.word	0x00009bcc
    99a0:	00009bcc 	.word	0x00009bcc
    99a4:	00009b9c 	.word	0x00009b9c
    99a8:	00009ba4 	.word	0x00009ba4
    99ac:	00009bcc 	.word	0x00009bcc
    99b0:	00009bcc 	.word	0x00009bcc
    99b4:	00009bcc 	.word	0x00009bcc
    99b8:	00009bcc 	.word	0x00009bcc
    99bc:	00009bcc 	.word	0x00009bcc
    99c0:	00009bcc 	.word	0x00009bcc
    99c4:	00009bcc 	.word	0x00009bcc
    99c8:	00009bcc 	.word	0x00009bcc
    99cc:	00009bcc 	.word	0x00009bcc
    99d0:	00009bcc 	.word	0x00009bcc
    99d4:	00009bcc 	.word	0x00009bcc
    99d8:	00009bcc 	.word	0x00009bcc
    99dc:	00009bcc 	.word	0x00009bcc
    99e0:	00009bcc 	.word	0x00009bcc
    99e4:	00009bcc 	.word	0x00009bcc
    99e8:	00009bcc 	.word	0x00009bcc
    99ec:	00009bcc 	.word	0x00009bcc
    99f0:	00009bcc 	.word	0x00009bcc
    99f4:	00009bcc 	.word	0x00009bcc
    99f8:	00009bcc 	.word	0x00009bcc
    99fc:	00009bcc 	.word	0x00009bcc
    9a00:	00009bcc 	.word	0x00009bcc
    9a04:	00009bcc 	.word	0x00009bcc
    9a08:	00009bcc 	.word	0x00009bcc
    9a0c:	00009bcc 	.word	0x00009bcc
    9a10:	00009bcc 	.word	0x00009bcc
    9a14:	00009bcc 	.word	0x00009bcc
    9a18:	00009bcc 	.word	0x00009bcc
    9a1c:	00009bcc 	.word	0x00009bcc
    9a20:	00009bcc 	.word	0x00009bcc
    9a24:	00009bcc 	.word	0x00009bcc
    9a28:	00009bcc 	.word	0x00009bcc
    9a2c:	00009bcc 	.word	0x00009bcc
    9a30:	00009bcc 	.word	0x00009bcc
    9a34:	00009bcc 	.word	0x00009bcc
    9a38:	00009bcc 	.word	0x00009bcc
    9a3c:	00009bcc 	.word	0x00009bcc
    9a40:	00009bcc 	.word	0x00009bcc
    9a44:	00009bcc 	.word	0x00009bcc
    9a48:	00009bcc 	.word	0x00009bcc
    9a4c:	00009bcc 	.word	0x00009bcc
    9a50:	00009bcc 	.word	0x00009bcc
    9a54:	00009bcc 	.word	0x00009bcc
    9a58:	00009bcc 	.word	0x00009bcc
    9a5c:	00009bcc 	.word	0x00009bcc
    9a60:	00009bcc 	.word	0x00009bcc
    9a64:	00009bcc 	.word	0x00009bcc
    9a68:	00009bcc 	.word	0x00009bcc
    9a6c:	00009bcc 	.word	0x00009bcc
    9a70:	00009bcc 	.word	0x00009bcc
    9a74:	00009bcc 	.word	0x00009bcc
    9a78:	00009bcc 	.word	0x00009bcc
    9a7c:	00009bcc 	.word	0x00009bcc
    9a80:	00009bac 	.word	0x00009bac
    9a84:	00009bb4 	.word	0x00009bb4
    9a88:	00009bcc 	.word	0x00009bcc
    9a8c:	00009bcc 	.word	0x00009bcc
    9a90:	00009bcc 	.word	0x00009bcc
    9a94:	00009bcc 	.word	0x00009bcc
    9a98:	00009bcc 	.word	0x00009bcc
    9a9c:	00009bcc 	.word	0x00009bcc
    9aa0:	00009bcc 	.word	0x00009bcc
    9aa4:	00009bcc 	.word	0x00009bcc
    9aa8:	00009bcc 	.word	0x00009bcc
    9aac:	00009bcc 	.word	0x00009bcc
    9ab0:	00009bcc 	.word	0x00009bcc
    9ab4:	00009bbc 	.word	0x00009bbc
    9ab8:	00009bc4 	.word	0x00009bc4
    9abc:	e59f013c 	ldr	r0, [pc, #316]	; 9c00 <mbr_part_str+0x544>
    9ac0:	e12fff1e 	bx	lr
    9ac4:	e59f0138 	ldr	r0, [pc, #312]	; 9c04 <mbr_part_str+0x548>
    9ac8:	e12fff1e 	bx	lr
    9acc:	e59f0134 	ldr	r0, [pc, #308]	; 9c08 <mbr_part_str+0x54c>
    9ad0:	e12fff1e 	bx	lr
    9ad4:	e59f0130 	ldr	r0, [pc, #304]	; 9c0c <mbr_part_str+0x550>
    9ad8:	e12fff1e 	bx	lr
    9adc:	e59f012c 	ldr	r0, [pc, #300]	; 9c10 <mbr_part_str+0x554>
    9ae0:	e12fff1e 	bx	lr
    9ae4:	e59f0128 	ldr	r0, [pc, #296]	; 9c14 <mbr_part_str+0x558>
    9ae8:	e12fff1e 	bx	lr
    9aec:	e59f0124 	ldr	r0, [pc, #292]	; 9c18 <mbr_part_str+0x55c>
    9af0:	e12fff1e 	bx	lr
    9af4:	e59f0120 	ldr	r0, [pc, #288]	; 9c1c <mbr_part_str+0x560>
    9af8:	e12fff1e 	bx	lr
    9afc:	e59f011c 	ldr	r0, [pc, #284]	; 9c20 <mbr_part_str+0x564>
    9b00:	e12fff1e 	bx	lr
    9b04:	e59f0118 	ldr	r0, [pc, #280]	; 9c24 <mbr_part_str+0x568>
    9b08:	e12fff1e 	bx	lr
    9b0c:	e59f0114 	ldr	r0, [pc, #276]	; 9c28 <mbr_part_str+0x56c>
    9b10:	e12fff1e 	bx	lr
    9b14:	e59f0110 	ldr	r0, [pc, #272]	; 9c2c <mbr_part_str+0x570>
    9b18:	e12fff1e 	bx	lr
    9b1c:	e59f010c 	ldr	r0, [pc, #268]	; 9c30 <mbr_part_str+0x574>
    9b20:	e12fff1e 	bx	lr
    9b24:	e59f0108 	ldr	r0, [pc, #264]	; 9c34 <mbr_part_str+0x578>
    9b28:	e12fff1e 	bx	lr
    9b2c:	e59f0104 	ldr	r0, [pc, #260]	; 9c38 <mbr_part_str+0x57c>
    9b30:	e12fff1e 	bx	lr
    9b34:	e59f0100 	ldr	r0, [pc, #256]	; 9c3c <mbr_part_str+0x580>
    9b38:	e12fff1e 	bx	lr
    9b3c:	e59f00fc 	ldr	r0, [pc, #252]	; 9c40 <mbr_part_str+0x584>
    9b40:	e12fff1e 	bx	lr
    9b44:	e59f00f8 	ldr	r0, [pc, #248]	; 9c44 <mbr_part_str+0x588>
    9b48:	e12fff1e 	bx	lr
    9b4c:	e59f00f4 	ldr	r0, [pc, #244]	; 9c48 <mbr_part_str+0x58c>
    9b50:	e12fff1e 	bx	lr
    9b54:	e59f00f0 	ldr	r0, [pc, #240]	; 9c4c <mbr_part_str+0x590>
    9b58:	e12fff1e 	bx	lr
    9b5c:	e59f00e8 	ldr	r0, [pc, #232]	; 9c4c <mbr_part_str+0x590>
    9b60:	e12fff1e 	bx	lr
    9b64:	e59f00d8 	ldr	r0, [pc, #216]	; 9c44 <mbr_part_str+0x588>
    9b68:	e12fff1e 	bx	lr
    9b6c:	e59f00d0 	ldr	r0, [pc, #208]	; 9c44 <mbr_part_str+0x588>
    9b70:	e12fff1e 	bx	lr
    9b74:	e59f00d4 	ldr	r0, [pc, #212]	; 9c50 <mbr_part_str+0x594>
    9b78:	e12fff1e 	bx	lr
    9b7c:	e59f00d0 	ldr	r0, [pc, #208]	; 9c54 <mbr_part_str+0x598>
    9b80:	e12fff1e 	bx	lr
    9b84:	e59f00cc 	ldr	r0, [pc, #204]	; 9c58 <mbr_part_str+0x59c>
    9b88:	e12fff1e 	bx	lr
    9b8c:	e59f00c8 	ldr	r0, [pc, #200]	; 9c5c <mbr_part_str+0x5a0>
    9b90:	e12fff1e 	bx	lr
    9b94:	e59f00c4 	ldr	r0, [pc, #196]	; 9c60 <mbr_part_str+0x5a4>
    9b98:	e12fff1e 	bx	lr
    9b9c:	e59f00c0 	ldr	r0, [pc, #192]	; 9c64 <mbr_part_str+0x5a8>
    9ba0:	e12fff1e 	bx	lr
    9ba4:	e59f00bc 	ldr	r0, [pc, #188]	; 9c68 <mbr_part_str+0x5ac>
    9ba8:	e12fff1e 	bx	lr
    9bac:	e59f00b8 	ldr	r0, [pc, #184]	; 9c6c <mbr_part_str+0x5b0>
    9bb0:	e12fff1e 	bx	lr
    9bb4:	e59f00b4 	ldr	r0, [pc, #180]	; 9c70 <mbr_part_str+0x5b4>
    9bb8:	e12fff1e 	bx	lr
    9bbc:	e59f00b0 	ldr	r0, [pc, #176]	; 9c74 <mbr_part_str+0x5b8>
    9bc0:	e12fff1e 	bx	lr
    9bc4:	e59f00ac 	ldr	r0, [pc, #172]	; 9c78 <mbr_part_str+0x5bc>
    9bc8:	e12fff1e 	bx	lr
    9bcc:	e52de004 	push	{lr}		; (str lr, [sp, #-4]!)
    9bd0:	e24dd00c 	sub	sp, sp, #12, 0
    9bd4:	e58d0000 	str	r0, [sp]
    9bd8:	e3a0304d 	mov	r3, #77, 0	; 0x4d
    9bdc:	e59f2098 	ldr	r2, [pc, #152]	; 9c7c <mbr_part_str+0x5c0>
    9be0:	e59f1098 	ldr	r1, [pc, #152]	; 9c80 <mbr_part_str+0x5c4>
    9be4:	e59f0098 	ldr	r0, [pc, #152]	; 9c84 <mbr_part_str+0x5c8>
    9be8:	eb000db9 	bl	d2d4 <printk>
    9bec:	eb000ee8 	bl	d794 <clean_reboot>
    9bf0:	e59f0090 	ldr	r0, [pc, #144]	; 9c88 <mbr_part_str+0x5cc>
    9bf4:	e12fff1e 	bx	lr
    9bf8:	e59f008c 	ldr	r0, [pc, #140]	; 9c8c <mbr_part_str+0x5d0>
    9bfc:	e12fff1e 	bx	lr
    9c00:	0000e85c 	.word	0x0000e85c
    9c04:	0000e874 	.word	0x0000e874
    9c08:	0000e890 	.word	0x0000e890
    9c0c:	0000e8ac 	.word	0x0000e8ac
    9c10:	0000e8b4 	.word	0x0000e8b4
    9c14:	0000e8c0 	.word	0x0000e8c0
    9c18:	0000e8cc 	.word	0x0000e8cc
    9c1c:	0000e8e8 	.word	0x0000e8e8
    9c20:	0000e904 	.word	0x0000e904
    9c24:	0000e918 	.word	0x0000e918
    9c28:	0000e938 	.word	0x0000e938
    9c2c:	0000e958 	.word	0x0000e958
    9c30:	0000e96c 	.word	0x0000e96c
    9c34:	0000e980 	.word	0x0000e980
    9c38:	0000e9a0 	.word	0x0000e9a0
    9c3c:	0000e9c0 	.word	0x0000e9c0
    9c40:	0000e9dc 	.word	0x0000e9dc
    9c44:	0000e9e4 	.word	0x0000e9e4
    9c48:	0000e9f0 	.word	0x0000e9f0
    9c4c:	0000ea00 	.word	0x0000ea00
    9c50:	0000ea10 	.word	0x0000ea10
    9c54:	0000ea18 	.word	0x0000ea18
    9c58:	0000ea20 	.word	0x0000ea20
    9c5c:	0000ea28 	.word	0x0000ea28
    9c60:	0000ea30 	.word	0x0000ea30
    9c64:	0000ea40 	.word	0x0000ea40
    9c68:	0000ea48 	.word	0x0000ea48
    9c6c:	0000ea54 	.word	0x0000ea54
    9c70:	0000ea64 	.word	0x0000ea64
    9c74:	0000ea7c 	.word	0x0000ea7c
    9c78:	0000e844 	.word	0x0000e844
    9c7c:	0000ec70 	.word	0x0000ec70
    9c80:	0000e824 	.word	0x0000e824
    9c84:	0000ea98 	.word	0x0000ea98
    9c88:	0000ea90 	.word	0x0000ea90
    9c8c:	0000e850 	.word	0x0000e850

00009c90 <mbr_partition_empty>:
    9c90:	e92d4010 	push	{r4, lr}
    9c94:	e3a01010 	mov	r1, #16, 0
    9c98:	eb000d4e 	bl	d1d8 <memiszero>
    9c9c:	e8bd8010 	pop	{r4, pc}

00009ca0 <mbr_partition_empty_raw>:
    9ca0:	e92d4010 	push	{r4, lr}
    9ca4:	e3a01010 	mov	r1, #16, 0
    9ca8:	eb000d4a 	bl	d1d8 <memiszero>
    9cac:	e8bd8010 	pop	{r4, pc}

00009cb0 <mbr_check>:
    9cb0:	e92d4030 	push	{r4, r5, lr}
    9cb4:	e24dd01c 	sub	sp, sp, #28, 0
    9cb8:	e2803f7f 	add	r3, r0, #508	; 0x1fc
    9cbc:	e1d320b2 	ldrh	r2, [r3, #2]
    9cc0:	e59f3144 	ldr	r3, [pc, #324]	; 9e0c <mbr_check+0x15c>
    9cc4:	e1520003 	cmp	r2, r3
    9cc8:	1a00001f 	bne	9d4c <mbr_check+0x9c>
    9ccc:	e1a04000 	mov	r4, r0
    9cd0:	e2805f6f 	add	r5, r0, #444	; 0x1bc
    9cd4:	e2855002 	add	r5, r5, #2, 0
    9cd8:	e3a02010 	mov	r2, #16, 0
    9cdc:	e1a01005 	mov	r1, r5
    9ce0:	e28d0008 	add	r0, sp, #8, 0
    9ce4:	eb000d33 	bl	d1b8 <memcpy>
    9ce8:	e5dd300c 	ldrb	r3, [sp, #12]
    9cec:	e243300b 	sub	r3, r3, #11, 0
    9cf0:	e3530001 	cmp	r3, #1, 0
    9cf4:	8a00001c 	bhi	9d6c <mbr_check+0xbc>
    9cf8:	e1a00005 	mov	r0, r5
    9cfc:	ebffffe7 	bl	9ca0 <mbr_partition_empty_raw>
    9d00:	e3500000 	cmp	r0, #0, 0
    9d04:	1a000020 	bne	9d8c <mbr_check+0xdc>
    9d08:	e2840f73 	add	r0, r4, #460	; 0x1cc
    9d0c:	e2800002 	add	r0, r0, #2, 0
    9d10:	ebffffe2 	bl	9ca0 <mbr_partition_empty_raw>
    9d14:	e3500000 	cmp	r0, #0, 0
    9d18:	0a000023 	beq	9dac <mbr_check+0xfc>
    9d1c:	e2840f77 	add	r0, r4, #476	; 0x1dc
    9d20:	e2800002 	add	r0, r0, #2, 0
    9d24:	ebffffdd 	bl	9ca0 <mbr_partition_empty_raw>
    9d28:	e3500000 	cmp	r0, #0, 0
    9d2c:	0a000026 	beq	9dcc <mbr_check+0x11c>
    9d30:	e2840f7b 	add	r0, r4, #492	; 0x1ec
    9d34:	e2800002 	add	r0, r0, #2, 0
    9d38:	ebffffd8 	bl	9ca0 <mbr_partition_empty_raw>
    9d3c:	e3500000 	cmp	r0, #0, 0
    9d40:	0a000029 	beq	9dec <mbr_check+0x13c>
    9d44:	e28dd01c 	add	sp, sp, #28, 0
    9d48:	e8bd8030 	pop	{r4, r5, pc}
    9d4c:	e59f30bc 	ldr	r3, [pc, #188]	; 9e10 <mbr_check+0x160>
    9d50:	e58d3000 	str	r3, [sp]
    9d54:	e3a03009 	mov	r3, #9, 0
    9d58:	e59f20b4 	ldr	r2, [pc, #180]	; 9e14 <mbr_check+0x164>
    9d5c:	e59f10b4 	ldr	r1, [pc, #180]	; 9e18 <mbr_check+0x168>
    9d60:	e59f00b4 	ldr	r0, [pc, #180]	; 9e1c <mbr_check+0x16c>
    9d64:	eb000d5a 	bl	d2d4 <printk>
    9d68:	eb000e89 	bl	d794 <clean_reboot>
    9d6c:	e59f30ac 	ldr	r3, [pc, #172]	; 9e20 <mbr_check+0x170>
    9d70:	e58d3000 	str	r3, [sp]
    9d74:	e3a0300f 	mov	r3, #15, 0
    9d78:	e59f2094 	ldr	r2, [pc, #148]	; 9e14 <mbr_check+0x164>
    9d7c:	e59f1094 	ldr	r1, [pc, #148]	; 9e18 <mbr_check+0x168>
    9d80:	e59f0094 	ldr	r0, [pc, #148]	; 9e1c <mbr_check+0x16c>
    9d84:	eb000d52 	bl	d2d4 <printk>
    9d88:	eb000e81 	bl	d794 <clean_reboot>
    9d8c:	e59f3090 	ldr	r3, [pc, #144]	; 9e24 <mbr_check+0x174>
    9d90:	e58d3000 	str	r3, [sp]
    9d94:	e3a03015 	mov	r3, #21, 0
    9d98:	e59f2074 	ldr	r2, [pc, #116]	; 9e14 <mbr_check+0x164>
    9d9c:	e59f1074 	ldr	r1, [pc, #116]	; 9e18 <mbr_check+0x168>
    9da0:	e59f0074 	ldr	r0, [pc, #116]	; 9e1c <mbr_check+0x16c>
    9da4:	eb000d4a 	bl	d2d4 <printk>
    9da8:	eb000e79 	bl	d794 <clean_reboot>
    9dac:	e59f3074 	ldr	r3, [pc, #116]	; 9e28 <mbr_check+0x178>
    9db0:	e58d3000 	str	r3, [sp]
    9db4:	e3a03016 	mov	r3, #22, 0
    9db8:	e59f2054 	ldr	r2, [pc, #84]	; 9e14 <mbr_check+0x164>
    9dbc:	e59f1054 	ldr	r1, [pc, #84]	; 9e18 <mbr_check+0x168>
    9dc0:	e59f0054 	ldr	r0, [pc, #84]	; 9e1c <mbr_check+0x16c>
    9dc4:	eb000d42 	bl	d2d4 <printk>
    9dc8:	eb000e71 	bl	d794 <clean_reboot>
    9dcc:	e59f3058 	ldr	r3, [pc, #88]	; 9e2c <mbr_check+0x17c>
    9dd0:	e58d3000 	str	r3, [sp]
    9dd4:	e3a03017 	mov	r3, #23, 0
    9dd8:	e59f2034 	ldr	r2, [pc, #52]	; 9e14 <mbr_check+0x164>
    9ddc:	e59f1034 	ldr	r1, [pc, #52]	; 9e18 <mbr_check+0x168>
    9de0:	e59f0034 	ldr	r0, [pc, #52]	; 9e1c <mbr_check+0x16c>
    9de4:	eb000d3a 	bl	d2d4 <printk>
    9de8:	eb000e69 	bl	d794 <clean_reboot>
    9dec:	e59f303c 	ldr	r3, [pc, #60]	; 9e30 <mbr_check+0x180>
    9df0:	e58d3000 	str	r3, [sp]
    9df4:	e3a03018 	mov	r3, #24, 0
    9df8:	e59f2014 	ldr	r2, [pc, #20]	; 9e14 <mbr_check+0x164>
    9dfc:	e59f1014 	ldr	r1, [pc, #20]	; 9e18 <mbr_check+0x168>
    9e00:	e59f0014 	ldr	r0, [pc, #20]	; 9e1c <mbr_check+0x16c>
    9e04:	eb000d32 	bl	d2d4 <printk>
    9e08:	eb000e61 	bl	d794 <clean_reboot>
    9e0c:	0000aa55 	.word	0x0000aa55
    9e10:	0000eabc 	.word	0x0000eabc
    9e14:	0000ec80 	.word	0x0000ec80
    9e18:	0000e824 	.word	0x0000e824
    9e1c:	0000e094 	.word	0x0000e094
    9e20:	0000ead4 	.word	0x0000ead4
    9e24:	0000eaf4 	.word	0x0000eaf4
    9e28:	0000eb20 	.word	0x0000eb20
    9e2c:	0000eb48 	.word	0x0000eb48
    9e30:	0000eb70 	.word	0x0000eb70

00009e34 <mbr_partition_print>:
    9e34:	e92d4030 	push	{r4, r5, lr}
    9e38:	e24dd00c 	sub	sp, sp, #12, 0
    9e3c:	e1a04001 	mov	r4, r1
    9e40:	e1a01000 	mov	r1, r0
    9e44:	e59f00fc 	ldr	r0, [pc, #252]	; 9f48 <mbr_partition_print+0x114>
    9e48:	eb000d21 	bl	d2d4 <printk>
    9e4c:	e5d43000 	ldrb	r3, [r4]
    9e50:	e3530000 	cmp	r3, #0, 0
    9e54:	0a000031 	beq	9f20 <mbr_partition_print+0xec>
    9e58:	e59f10ec 	ldr	r1, [pc, #236]	; 9f4c <mbr_partition_print+0x118>
    9e5c:	e59f00ec 	ldr	r0, [pc, #236]	; 9f50 <mbr_partition_print+0x11c>
    9e60:	eb000d1b 	bl	d2d4 <printk>
    9e64:	e5d43001 	ldrb	r3, [r4, #1]
    9e68:	e5d41002 	ldrb	r1, [r4, #2]
    9e6c:	e1833401 	orr	r3, r3, r1, lsl #8
    9e70:	e5d41003 	ldrb	r1, [r4, #3]
    9e74:	e1831801 	orr	r1, r3, r1, lsl #16
    9e78:	e59f00d4 	ldr	r0, [pc, #212]	; 9f54 <mbr_partition_print+0x120>
    9e7c:	eb000d14 	bl	d2d4 <printk>
    9e80:	e5d45004 	ldrb	r5, [r4, #4]
    9e84:	e1a00005 	mov	r0, r5
    9e88:	ebfffe0b 	bl	96bc <mbr_part_str>
    9e8c:	e1a02000 	mov	r2, r0
    9e90:	e1a01005 	mov	r1, r5
    9e94:	e59f00bc 	ldr	r0, [pc, #188]	; 9f58 <mbr_partition_print+0x124>
    9e98:	eb000d0d 	bl	d2d4 <printk>
    9e9c:	e5d43005 	ldrb	r3, [r4, #5]
    9ea0:	e5d41006 	ldrb	r1, [r4, #6]
    9ea4:	e1833401 	orr	r3, r3, r1, lsl #8
    9ea8:	e5d41007 	ldrb	r1, [r4, #7]
    9eac:	e1831801 	orr	r1, r3, r1, lsl #16
    9eb0:	e59f00a4 	ldr	r0, [pc, #164]	; 9f5c <mbr_partition_print+0x128>
    9eb4:	eb000d06 	bl	d2d4 <printk>
    9eb8:	e5d43008 	ldrb	r3, [r4, #8]
    9ebc:	e5d41009 	ldrb	r1, [r4, #9]
    9ec0:	e1833401 	orr	r3, r3, r1, lsl #8
    9ec4:	e5d4100a 	ldrb	r1, [r4, #10]
    9ec8:	e1833801 	orr	r3, r3, r1, lsl #16
    9ecc:	e5d4100b 	ldrb	r1, [r4, #11]
    9ed0:	e1831c01 	orr	r1, r3, r1, lsl #24
    9ed4:	e59f0084 	ldr	r0, [pc, #132]	; 9f60 <mbr_partition_print+0x12c>
    9ed8:	eb000cfd 	bl	d2d4 <printk>
    9edc:	e5d4100c 	ldrb	r1, [r4, #12]
    9ee0:	e5d4300d 	ldrb	r3, [r4, #13]
    9ee4:	e1811403 	orr	r1, r1, r3, lsl #8
    9ee8:	e5d4300e 	ldrb	r3, [r4, #14]
    9eec:	e1811803 	orr	r1, r1, r3, lsl #16
    9ef0:	e5d4300f 	ldrb	r3, [r4, #15]
    9ef4:	e1811c03 	orr	r1, r1, r3, lsl #24
    9ef8:	e1a02aa1 	lsr	r2, r1, #21
    9efc:	e59f0060 	ldr	r0, [pc, #96]	; 9f64 <mbr_partition_print+0x130>
    9f00:	eb000cf3 	bl	d2d4 <printk>
    9f04:	e5d43004 	ldrb	r3, [r4, #4]
    9f08:	e243300b 	sub	r3, r3, #11, 0
    9f0c:	e6ef3073 	uxtb	r3, r3
    9f10:	e3530001 	cmp	r3, #1, 0
    9f14:	8a000003 	bhi	9f28 <mbr_partition_print+0xf4>
    9f18:	e28dd00c 	add	sp, sp, #12, 0
    9f1c:	e8bd8030 	pop	{r4, r5, pc}
    9f20:	e59f1040 	ldr	r1, [pc, #64]	; 9f68 <mbr_partition_print+0x134>
    9f24:	eaffffcc 	b	9e5c <mbr_partition_print+0x28>
    9f28:	e59f303c 	ldr	r3, [pc, #60]	; 9f6c <mbr_partition_print+0x138>
    9f2c:	e58d3000 	str	r3, [sp]
    9f30:	e3a03061 	mov	r3, #97, 0	; 0x61
    9f34:	e59f2034 	ldr	r2, [pc, #52]	; 9f70 <mbr_partition_print+0x13c>
    9f38:	e59f1034 	ldr	r1, [pc, #52]	; 9f74 <mbr_partition_print+0x140>
    9f3c:	e59f0034 	ldr	r0, [pc, #52]	; 9f78 <mbr_partition_print+0x144>
    9f40:	eb000ce3 	bl	d2d4 <printk>
    9f44:	eb000e12 	bl	d794 <clean_reboot>
    9f48:	0000eba8 	.word	0x0000eba8
    9f4c:	0000eba0 	.word	0x0000eba0
    9f50:	0000ebb0 	.word	0x0000ebb0
    9f54:	0000ebc4 	.word	0x0000ebc4
    9f58:	0000ebd8 	.word	0x0000ebd8
    9f5c:	0000ebf0 	.word	0x0000ebf0
    9f60:	0000ec04 	.word	0x0000ec04
    9f64:	0000ec18 	.word	0x0000ec18
    9f68:	0000eb98 	.word	0x0000eb98
    9f6c:	0000ec30 	.word	0x0000ec30
    9f70:	0000ec8c 	.word	0x0000ec8c
    9f74:	0000e824 	.word	0x0000e824
    9f78:	0000e094 	.word	0x0000e094

00009f7c <to_8dot3>:
    9f7c:	e92d4010 	push	{r4, lr}
    9f80:	e1a04000 	mov	r4, r0
    9f84:	e3a02008 	mov	r2, #8, 0
    9f88:	e1a01000 	mov	r1, r0
    9f8c:	e59f0070 	ldr	r0, [pc, #112]	; a004 <to_8dot3+0x88>
    9f90:	eb000c88 	bl	d1b8 <memcpy>
    9f94:	e3a03007 	mov	r3, #7, 0
    9f98:	ea000000 	b	9fa0 <to_8dot3+0x24>
    9f9c:	e2433001 	sub	r3, r3, #1, 0
    9fa0:	e3530000 	cmp	r3, #0, 0
    9fa4:	ba000004 	blt	9fbc <to_8dot3+0x40>
    9fa8:	e59f2054 	ldr	r2, [pc, #84]	; a004 <to_8dot3+0x88>
    9fac:	e7d22003 	ldrb	r2, [r2, r3]
    9fb0:	e3520020 	cmp	r2, #32, 0
    9fb4:	0afffff8 	beq	9f9c <to_8dot3+0x20>
    9fb8:	e2833001 	add	r3, r3, #1, 0
    9fbc:	e2832001 	add	r2, r3, #1, 0
    9fc0:	e59f103c 	ldr	r1, [pc, #60]	; a004 <to_8dot3+0x88>
    9fc4:	e3a0002e 	mov	r0, #46, 0	; 0x2e
    9fc8:	e7c10003 	strb	r0, [r1, r3]
    9fcc:	e3a03000 	mov	r3, #0, 0
    9fd0:	e3530002 	cmp	r3, #2, 0
    9fd4:	ca000006 	bgt	9ff4 <to_8dot3+0x78>
    9fd8:	e0841003 	add	r1, r4, r3
    9fdc:	e5d10008 	ldrb	r0, [r1, #8]
    9fe0:	e59f101c 	ldr	r1, [pc, #28]	; a004 <to_8dot3+0x88>
    9fe4:	e7c10002 	strb	r0, [r1, r2]
    9fe8:	e2833001 	add	r3, r3, #1, 0
    9fec:	e2822001 	add	r2, r2, #1, 0
    9ff0:	eafffff6 	b	9fd0 <to_8dot3+0x54>
    9ff4:	e59f0008 	ldr	r0, [pc, #8]	; a004 <to_8dot3+0x88>
    9ff8:	e3a03000 	mov	r3, #0, 0
    9ffc:	e7c03002 	strb	r3, [r0, r2]
    a000:	e8bd8010 	pop	{r4, pc}
    a004:	000108c8 	.word	0x000108c8

0000a008 <add_nul>:
    a008:	e92d4070 	push	{r4, r5, r6, lr}
    a00c:	e1a01000 	mov	r1, r0
    a010:	e59f501c 	ldr	r5, [pc, #28]	; a034 <add_nul+0x2c>
    a014:	e2854010 	add	r4, r5, #16, 0
    a018:	e3a0200b 	mov	r2, #11, 0
    a01c:	e1a00004 	mov	r0, r4
    a020:	eb000c64 	bl	d1b8 <memcpy>
    a024:	e3a03000 	mov	r3, #0, 0
    a028:	e5c5301b 	strb	r3, [r5, #27]
    a02c:	e1a00004 	mov	r0, r4
    a030:	e8bd8070 	pop	{r4, r5, r6, pc}
    a034:	000108c8 	.word	0x000108c8

0000a038 <fat32_volume_id_check>:
    a038:	e52de004 	push	{lr}		; (str lr, [sp, #-4]!)
    a03c:	e24dd00c 	sub	sp, sp, #12, 0
    a040:	e5d0300b 	ldrb	r3, [r0, #11]
    a044:	e5d0200c 	ldrb	r2, [r0, #12]
    a048:	e1833402 	orr	r3, r3, r2, lsl #8
    a04c:	e3530c02 	cmp	r3, #512	; 0x200
    a050:	1a000035 	bne	a12c <fat32_volume_id_check+0xf4>
    a054:	e5d02010 	ldrb	r2, [r0, #16]
    a058:	e3520002 	cmp	r2, #2, 0
    a05c:	1a00003a 	bne	a14c <fat32_volume_id_check+0x114>
    a060:	e5d021fe 	ldrb	r2, [r0, #510]	; 0x1fe
    a064:	e5d011ff 	ldrb	r1, [r0, #511]	; 0x1ff
    a068:	e1822401 	orr	r2, r2, r1, lsl #8
    a06c:	e59f1238 	ldr	r1, [pc, #568]	; a2ac <fat32_volume_id_check+0x274>
    a070:	e1520001 	cmp	r2, r1
    a074:	1a00003c 	bne	a16c <fat32_volume_id_check+0x134>
    a078:	e5d0200d 	ldrb	r2, [r0, #13]
    a07c:	e2621000 	rsb	r1, r2, #0, 0
    a080:	e1d22001 	bics	r2, r2, r1
    a084:	1a000040 	bne	a18c <fat32_volume_id_check+0x154>
    a088:	e3530b01 	cmp	r3, #1024	; 0x400
    a08c:	13530c02 	cmpne	r3, #512	; 0x200
    a090:	0a000002 	beq	a0a0 <fat32_volume_id_check+0x68>
    a094:	e3530a01 	cmp	r3, #4096	; 0x1000
    a098:	13530b02 	cmpne	r3, #2048	; 0x800
    a09c:	1a000042 	bne	a1ac <fat32_volume_id_check+0x174>
    a0a0:	e5d03011 	ldrb	r3, [r0, #17]
    a0a4:	e5d02012 	ldrb	r2, [r0, #18]
    a0a8:	e1933402 	orrs	r3, r3, r2, lsl #8
    a0ac:	1a000046 	bne	a1cc <fat32_volume_id_check+0x194>
    a0b0:	e5d03013 	ldrb	r3, [r0, #19]
    a0b4:	e5d02014 	ldrb	r2, [r0, #20]
    a0b8:	e1933402 	orrs	r3, r3, r2, lsl #8
    a0bc:	1a00004a 	bne	a1ec <fat32_volume_id_check+0x1b4>
    a0c0:	e5d03016 	ldrb	r3, [r0, #22]
    a0c4:	e5d02017 	ldrb	r2, [r0, #23]
    a0c8:	e1933402 	orrs	r3, r3, r2, lsl #8
    a0cc:	1a00004e 	bne	a20c <fat32_volume_id_check+0x1d4>
    a0d0:	e5d03020 	ldrb	r3, [r0, #32]
    a0d4:	e5d02021 	ldrb	r2, [r0, #33]	; 0x21
    a0d8:	e1833402 	orr	r3, r3, r2, lsl #8
    a0dc:	e5d02022 	ldrb	r2, [r0, #34]	; 0x22
    a0e0:	e1833802 	orr	r3, r3, r2, lsl #16
    a0e4:	e5d02023 	ldrb	r2, [r0, #35]	; 0x23
    a0e8:	e1933c02 	orrs	r3, r3, r2, lsl #24
    a0ec:	0a00004e 	beq	a22c <fat32_volume_id_check+0x1f4>
    a0f0:	e5d03030 	ldrb	r3, [r0, #48]	; 0x30
    a0f4:	e5d02031 	ldrb	r2, [r0, #49]	; 0x31
    a0f8:	e1833402 	orr	r3, r3, r2, lsl #8
    a0fc:	e3530001 	cmp	r3, #1, 0
    a100:	1a000051 	bne	a24c <fat32_volume_id_check+0x214>
    a104:	e5d03032 	ldrb	r3, [r0, #50]	; 0x32
    a108:	e5d02033 	ldrb	r2, [r0, #51]	; 0x33
    a10c:	e1833402 	orr	r3, r3, r2, lsl #8
    a110:	e3530006 	cmp	r3, #6, 0
    a114:	1a000054 	bne	a26c <fat32_volume_id_check+0x234>
    a118:	e5d03042 	ldrb	r3, [r0, #66]	; 0x42
    a11c:	e3530029 	cmp	r3, #41, 0	; 0x29
    a120:	1a000059 	bne	a28c <fat32_volume_id_check+0x254>
    a124:	e28dd00c 	add	sp, sp, #12, 0
    a128:	e49df004 	pop	{pc}		; (ldr pc, [sp], #4)
    a12c:	e59f317c 	ldr	r3, [pc, #380]	; a2b0 <fat32_volume_id_check+0x278>
    a130:	e58d3000 	str	r3, [sp]
    a134:	e3a0300f 	mov	r3, #15, 0
    a138:	e59f2174 	ldr	r2, [pc, #372]	; a2b4 <fat32_volume_id_check+0x27c>
    a13c:	e59f1174 	ldr	r1, [pc, #372]	; a2b8 <fat32_volume_id_check+0x280>
    a140:	e59f0174 	ldr	r0, [pc, #372]	; a2bc <fat32_volume_id_check+0x284>
    a144:	eb000c62 	bl	d2d4 <printk>
    a148:	eb000d91 	bl	d794 <clean_reboot>
    a14c:	e59f316c 	ldr	r3, [pc, #364]	; a2c0 <fat32_volume_id_check+0x288>
    a150:	e58d3000 	str	r3, [sp]
    a154:	e3a03010 	mov	r3, #16, 0
    a158:	e59f2154 	ldr	r2, [pc, #340]	; a2b4 <fat32_volume_id_check+0x27c>
    a15c:	e59f1154 	ldr	r1, [pc, #340]	; a2b8 <fat32_volume_id_check+0x280>
    a160:	e59f0154 	ldr	r0, [pc, #340]	; a2bc <fat32_volume_id_check+0x284>
    a164:	eb000c5a 	bl	d2d4 <printk>
    a168:	eb000d89 	bl	d794 <clean_reboot>
    a16c:	e59f3150 	ldr	r3, [pc, #336]	; a2c4 <fat32_volume_id_check+0x28c>
    a170:	e58d3000 	str	r3, [sp]
    a174:	e3a03011 	mov	r3, #17, 0
    a178:	e59f2134 	ldr	r2, [pc, #308]	; a2b4 <fat32_volume_id_check+0x27c>
    a17c:	e59f1134 	ldr	r1, [pc, #308]	; a2b8 <fat32_volume_id_check+0x280>
    a180:	e59f0134 	ldr	r0, [pc, #308]	; a2bc <fat32_volume_id_check+0x284>
    a184:	eb000c52 	bl	d2d4 <printk>
    a188:	eb000d81 	bl	d794 <clean_reboot>
    a18c:	e59f3134 	ldr	r3, [pc, #308]	; a2c8 <fat32_volume_id_check+0x290>
    a190:	e58d3000 	str	r3, [sp]
    a194:	e3a03013 	mov	r3, #19, 0
    a198:	e59f2114 	ldr	r2, [pc, #276]	; a2b4 <fat32_volume_id_check+0x27c>
    a19c:	e59f1114 	ldr	r1, [pc, #276]	; a2b8 <fat32_volume_id_check+0x280>
    a1a0:	e59f0114 	ldr	r0, [pc, #276]	; a2bc <fat32_volume_id_check+0x284>
    a1a4:	eb000c4a 	bl	d2d4 <printk>
    a1a8:	eb000d79 	bl	d794 <clean_reboot>
    a1ac:	e59f3118 	ldr	r3, [pc, #280]	; a2cc <fat32_volume_id_check+0x294>
    a1b0:	e58d3000 	str	r3, [sp]
    a1b4:	e3a03015 	mov	r3, #21, 0
    a1b8:	e59f20f4 	ldr	r2, [pc, #244]	; a2b4 <fat32_volume_id_check+0x27c>
    a1bc:	e59f10f4 	ldr	r1, [pc, #244]	; a2b8 <fat32_volume_id_check+0x280>
    a1c0:	e59f00f4 	ldr	r0, [pc, #244]	; a2bc <fat32_volume_id_check+0x284>
    a1c4:	eb000c42 	bl	d2d4 <printk>
    a1c8:	eb000d71 	bl	d794 <clean_reboot>
    a1cc:	e59f30fc 	ldr	r3, [pc, #252]	; a2d0 <fat32_volume_id_check+0x298>
    a1d0:	e58d3000 	str	r3, [sp]
    a1d4:	e3a03016 	mov	r3, #22, 0
    a1d8:	e59f20d4 	ldr	r2, [pc, #212]	; a2b4 <fat32_volume_id_check+0x27c>
    a1dc:	e59f10d4 	ldr	r1, [pc, #212]	; a2b8 <fat32_volume_id_check+0x280>
    a1e0:	e59f00d4 	ldr	r0, [pc, #212]	; a2bc <fat32_volume_id_check+0x284>
    a1e4:	eb000c3a 	bl	d2d4 <printk>
    a1e8:	eb000d69 	bl	d794 <clean_reboot>
    a1ec:	e59f30e0 	ldr	r3, [pc, #224]	; a2d4 <fat32_volume_id_check+0x29c>
    a1f0:	e58d3000 	str	r3, [sp]
    a1f4:	e3a03018 	mov	r3, #24, 0
    a1f8:	e59f20b4 	ldr	r2, [pc, #180]	; a2b4 <fat32_volume_id_check+0x27c>
    a1fc:	e59f10b4 	ldr	r1, [pc, #180]	; a2b8 <fat32_volume_id_check+0x280>
    a200:	e59f00b4 	ldr	r0, [pc, #180]	; a2bc <fat32_volume_id_check+0x284>
    a204:	eb000c32 	bl	d2d4 <printk>
    a208:	eb000d61 	bl	d794 <clean_reboot>
    a20c:	e59f30c4 	ldr	r3, [pc, #196]	; a2d8 <fat32_volume_id_check+0x2a0>
    a210:	e58d3000 	str	r3, [sp]
    a214:	e3a0301b 	mov	r3, #27, 0
    a218:	e59f2094 	ldr	r2, [pc, #148]	; a2b4 <fat32_volume_id_check+0x27c>
    a21c:	e59f1094 	ldr	r1, [pc, #148]	; a2b8 <fat32_volume_id_check+0x280>
    a220:	e59f0094 	ldr	r0, [pc, #148]	; a2bc <fat32_volume_id_check+0x284>
    a224:	eb000c2a 	bl	d2d4 <printk>
    a228:	eb000d59 	bl	d794 <clean_reboot>
    a22c:	e59f30a8 	ldr	r3, [pc, #168]	; a2dc <fat32_volume_id_check+0x2a4>
    a230:	e58d3000 	str	r3, [sp]
    a234:	e3a0301c 	mov	r3, #28, 0
    a238:	e59f2074 	ldr	r2, [pc, #116]	; a2b4 <fat32_volume_id_check+0x27c>
    a23c:	e59f1074 	ldr	r1, [pc, #116]	; a2b8 <fat32_volume_id_check+0x280>
    a240:	e59f0074 	ldr	r0, [pc, #116]	; a2bc <fat32_volume_id_check+0x284>
    a244:	eb000c22 	bl	d2d4 <printk>
    a248:	eb000d51 	bl	d794 <clean_reboot>
    a24c:	e59f308c 	ldr	r3, [pc, #140]	; a2e0 <fat32_volume_id_check+0x2a8>
    a250:	e58d3000 	str	r3, [sp]
    a254:	e3a0301f 	mov	r3, #31, 0
    a258:	e59f2054 	ldr	r2, [pc, #84]	; a2b4 <fat32_volume_id_check+0x27c>
    a25c:	e59f1054 	ldr	r1, [pc, #84]	; a2b8 <fat32_volume_id_check+0x280>
    a260:	e59f0054 	ldr	r0, [pc, #84]	; a2bc <fat32_volume_id_check+0x284>
    a264:	eb000c1a 	bl	d2d4 <printk>
    a268:	eb000d49 	bl	d794 <clean_reboot>
    a26c:	e59f3070 	ldr	r3, [pc, #112]	; a2e4 <fat32_volume_id_check+0x2ac>
    a270:	e58d3000 	str	r3, [sp]
    a274:	e3a03020 	mov	r3, #32, 0
    a278:	e59f2034 	ldr	r2, [pc, #52]	; a2b4 <fat32_volume_id_check+0x27c>
    a27c:	e59f1034 	ldr	r1, [pc, #52]	; a2b8 <fat32_volume_id_check+0x280>
    a280:	e59f0034 	ldr	r0, [pc, #52]	; a2bc <fat32_volume_id_check+0x284>
    a284:	eb000c12 	bl	d2d4 <printk>
    a288:	eb000d41 	bl	d794 <clean_reboot>
    a28c:	e59f3054 	ldr	r3, [pc, #84]	; a2e8 <fat32_volume_id_check+0x2b0>
    a290:	e58d3000 	str	r3, [sp]
    a294:	e3a03021 	mov	r3, #33, 0	; 0x21
    a298:	e59f2014 	ldr	r2, [pc, #20]	; a2b4 <fat32_volume_id_check+0x27c>
    a29c:	e59f1014 	ldr	r1, [pc, #20]	; a2b8 <fat32_volume_id_check+0x280>
    a2a0:	e59f0014 	ldr	r0, [pc, #20]	; a2bc <fat32_volume_id_check+0x284>
    a2a4:	eb000c0a 	bl	d2d4 <printk>
    a2a8:	eb000d39 	bl	d794 <clean_reboot>
    a2ac:	0000aa55 	.word	0x0000aa55
    a2b0:	0000ecb4 	.word	0x0000ecb4
    a2b4:	0000f414 	.word	0x0000f414
    a2b8:	0000eca0 	.word	0x0000eca0
    a2bc:	0000e094 	.word	0x0000e094
    a2c0:	0000eccc 	.word	0x0000eccc
    a2c4:	0000ecdc 	.word	0x0000ecdc
    a2c8:	0000ecf0 	.word	0x0000ecf0
    a2cc:	0000ed0c 	.word	0x0000ed0c
    a2d0:	0000ed3c 	.word	0x0000ed3c
    a2d4:	0000ed4c 	.word	0x0000ed4c
    a2d8:	0000ed5c 	.word	0x0000ed5c
    a2dc:	0000ed6c 	.word	0x0000ed6c
    a2e0:	0000ed80 	.word	0x0000ed80
    a2e4:	0000ed98 	.word	0x0000ed98
    a2e8:	0000edb0 	.word	0x0000edb0

0000a2ec <fat32_volume_id_print>:
    a2ec:	e92d4030 	push	{r4, r5, lr}
    a2f0:	e24dd02c 	sub	sp, sp, #44, 0	; 0x2c
    a2f4:	e1a04001 	mov	r4, r1
    a2f8:	e1a01000 	mov	r1, r0
    a2fc:	e59f0240 	ldr	r0, [pc, #576]	; a544 <fat32_volume_id_print+0x258>
    a300:	eb000bf3 	bl	d2d4 <printk>
    a304:	e3a02008 	mov	r2, #8, 0
    a308:	e2841003 	add	r1, r4, #3, 0
    a30c:	e28d001c 	add	r0, sp, #28, 0
    a310:	eb000ba8 	bl	d1b8 <memcpy>
    a314:	e3a05000 	mov	r5, #0, 0
    a318:	e5cd5024 	strb	r5, [sp, #36]	; 0x24
    a31c:	e3a0200b 	mov	r2, #11, 0
    a320:	e2841047 	add	r1, r4, #71, 0	; 0x47
    a324:	e28d0010 	add	r0, sp, #16, 0
    a328:	eb000ba2 	bl	d1b8 <memcpy>
    a32c:	e5cd5027 	strb	r5, [sp, #39]	; 0x27
    a330:	e3a02008 	mov	r2, #8, 0
    a334:	e2841052 	add	r1, r4, #82, 0	; 0x52
    a338:	e28d0004 	add	r0, sp, #4, 0
    a33c:	eb000b9d 	bl	d1b8 <memcpy>
    a340:	e5cd500c 	strb	r5, [sp, #12]
    a344:	e28d101c 	add	r1, sp, #28, 0
    a348:	e59f01f8 	ldr	r0, [pc, #504]	; a548 <fat32_volume_id_print+0x25c>
    a34c:	eb000be0 	bl	d2d4 <printk>
    a350:	e5d4300b 	ldrb	r3, [r4, #11]
    a354:	e5d4100c 	ldrb	r1, [r4, #12]
    a358:	e1831401 	orr	r1, r3, r1, lsl #8
    a35c:	e59f01e8 	ldr	r0, [pc, #488]	; a54c <fat32_volume_id_print+0x260>
    a360:	eb000bdb 	bl	d2d4 <printk>
    a364:	e5d4100d 	ldrb	r1, [r4, #13]
    a368:	e59f01e0 	ldr	r0, [pc, #480]	; a550 <fat32_volume_id_print+0x264>
    a36c:	eb000bd8 	bl	d2d4 <printk>
    a370:	e5d4300e 	ldrb	r3, [r4, #14]
    a374:	e5d4100f 	ldrb	r1, [r4, #15]
    a378:	e1831401 	orr	r1, r3, r1, lsl #8
    a37c:	e59f01d0 	ldr	r0, [pc, #464]	; a554 <fat32_volume_id_print+0x268>
    a380:	eb000bd3 	bl	d2d4 <printk>
    a384:	e5d41010 	ldrb	r1, [r4, #16]
    a388:	e59f01c8 	ldr	r0, [pc, #456]	; a558 <fat32_volume_id_print+0x26c>
    a38c:	eb000bd0 	bl	d2d4 <printk>
    a390:	e5d43011 	ldrb	r3, [r4, #17]
    a394:	e5d41012 	ldrb	r1, [r4, #18]
    a398:	e1831401 	orr	r1, r3, r1, lsl #8
    a39c:	e59f01b8 	ldr	r0, [pc, #440]	; a55c <fat32_volume_id_print+0x270>
    a3a0:	eb000bcb 	bl	d2d4 <printk>
    a3a4:	e5d43013 	ldrb	r3, [r4, #19]
    a3a8:	e5d41014 	ldrb	r1, [r4, #20]
    a3ac:	e1831401 	orr	r1, r3, r1, lsl #8
    a3b0:	e59f01a8 	ldr	r0, [pc, #424]	; a560 <fat32_volume_id_print+0x274>
    a3b4:	eb000bc6 	bl	d2d4 <printk>
    a3b8:	e5d41015 	ldrb	r1, [r4, #21]
    a3bc:	e59f01a0 	ldr	r0, [pc, #416]	; a564 <fat32_volume_id_print+0x278>
    a3c0:	eb000bc3 	bl	d2d4 <printk>
    a3c4:	e5d43018 	ldrb	r3, [r4, #24]
    a3c8:	e5d41019 	ldrb	r1, [r4, #25]
    a3cc:	e1831401 	orr	r1, r3, r1, lsl #8
    a3d0:	e59f0190 	ldr	r0, [pc, #400]	; a568 <fat32_volume_id_print+0x27c>
    a3d4:	eb000bbe 	bl	d2d4 <printk>
    a3d8:	e5d4301a 	ldrb	r3, [r4, #26]
    a3dc:	e5d4101b 	ldrb	r1, [r4, #27]
    a3e0:	e1831401 	orr	r1, r3, r1, lsl #8
    a3e4:	e59f0180 	ldr	r0, [pc, #384]	; a56c <fat32_volume_id_print+0x280>
    a3e8:	eb000bb9 	bl	d2d4 <printk>
    a3ec:	e5d4301c 	ldrb	r3, [r4, #28]
    a3f0:	e5d4101d 	ldrb	r1, [r4, #29]
    a3f4:	e1833401 	orr	r3, r3, r1, lsl #8
    a3f8:	e5d4101e 	ldrb	r1, [r4, #30]
    a3fc:	e1833801 	orr	r3, r3, r1, lsl #16
    a400:	e5d4101f 	ldrb	r1, [r4, #31]
    a404:	e1831c01 	orr	r1, r3, r1, lsl #24
    a408:	e59f0160 	ldr	r0, [pc, #352]	; a570 <fat32_volume_id_print+0x284>
    a40c:	eb000bb0 	bl	d2d4 <printk>
    a410:	e5d43020 	ldrb	r3, [r4, #32]
    a414:	e5d41021 	ldrb	r1, [r4, #33]	; 0x21
    a418:	e1833401 	orr	r3, r3, r1, lsl #8
    a41c:	e5d41022 	ldrb	r1, [r4, #34]	; 0x22
    a420:	e1833801 	orr	r3, r3, r1, lsl #16
    a424:	e5d41023 	ldrb	r1, [r4, #35]	; 0x23
    a428:	e1831c01 	orr	r1, r3, r1, lsl #24
    a42c:	e59f0140 	ldr	r0, [pc, #320]	; a574 <fat32_volume_id_print+0x288>
    a430:	eb000ba7 	bl	d2d4 <printk>
    a434:	e5d43024 	ldrb	r3, [r4, #36]	; 0x24
    a438:	e5d41025 	ldrb	r1, [r4, #37]	; 0x25
    a43c:	e1833401 	orr	r3, r3, r1, lsl #8
    a440:	e5d41026 	ldrb	r1, [r4, #38]	; 0x26
    a444:	e1833801 	orr	r3, r3, r1, lsl #16
    a448:	e5d41027 	ldrb	r1, [r4, #39]	; 0x27
    a44c:	e1831c01 	orr	r1, r3, r1, lsl #24
    a450:	e59f0120 	ldr	r0, [pc, #288]	; a578 <fat32_volume_id_print+0x28c>
    a454:	eb000b9e 	bl	d2d4 <printk>
    a458:	e5d43028 	ldrb	r3, [r4, #40]	; 0x28
    a45c:	e5d41029 	ldrb	r1, [r4, #41]	; 0x29
    a460:	e1831401 	orr	r1, r3, r1, lsl #8
    a464:	e59f0110 	ldr	r0, [pc, #272]	; a57c <fat32_volume_id_print+0x290>
    a468:	eb000b99 	bl	d2d4 <printk>
    a46c:	e5d4302a 	ldrb	r3, [r4, #42]	; 0x2a
    a470:	e5d4102b 	ldrb	r1, [r4, #43]	; 0x2b
    a474:	e1831401 	orr	r1, r3, r1, lsl #8
    a478:	e59f0100 	ldr	r0, [pc, #256]	; a580 <fat32_volume_id_print+0x294>
    a47c:	eb000b94 	bl	d2d4 <printk>
    a480:	e5d4302c 	ldrb	r3, [r4, #44]	; 0x2c
    a484:	e5d4102d 	ldrb	r1, [r4, #45]	; 0x2d
    a488:	e1833401 	orr	r3, r3, r1, lsl #8
    a48c:	e5d4102e 	ldrb	r1, [r4, #46]	; 0x2e
    a490:	e1833801 	orr	r3, r3, r1, lsl #16
    a494:	e5d4102f 	ldrb	r1, [r4, #47]	; 0x2f
    a498:	e1831c01 	orr	r1, r3, r1, lsl #24
    a49c:	e59f00e0 	ldr	r0, [pc, #224]	; a584 <fat32_volume_id_print+0x298>
    a4a0:	eb000b8b 	bl	d2d4 <printk>
    a4a4:	e5d43030 	ldrb	r3, [r4, #48]	; 0x30
    a4a8:	e5d41031 	ldrb	r1, [r4, #49]	; 0x31
    a4ac:	e1831401 	orr	r1, r3, r1, lsl #8
    a4b0:	e59f00d0 	ldr	r0, [pc, #208]	; a588 <fat32_volume_id_print+0x29c>
    a4b4:	eb000b86 	bl	d2d4 <printk>
    a4b8:	e5d43032 	ldrb	r3, [r4, #50]	; 0x32
    a4bc:	e5d41033 	ldrb	r1, [r4, #51]	; 0x33
    a4c0:	e1831401 	orr	r1, r3, r1, lsl #8
    a4c4:	e59f00c0 	ldr	r0, [pc, #192]	; a58c <fat32_volume_id_print+0x2a0>
    a4c8:	eb000b81 	bl	d2d4 <printk>
    a4cc:	e5d41040 	ldrb	r1, [r4, #64]	; 0x40
    a4d0:	e59f00b8 	ldr	r0, [pc, #184]	; a590 <fat32_volume_id_print+0x2a4>
    a4d4:	eb000b7e 	bl	d2d4 <printk>
    a4d8:	e5d41042 	ldrb	r1, [r4, #66]	; 0x42
    a4dc:	e59f00b0 	ldr	r0, [pc, #176]	; a594 <fat32_volume_id_print+0x2a8>
    a4e0:	eb000b7b 	bl	d2d4 <printk>
    a4e4:	e5d43043 	ldrb	r3, [r4, #67]	; 0x43
    a4e8:	e5d41044 	ldrb	r1, [r4, #68]	; 0x44
    a4ec:	e1833401 	orr	r3, r3, r1, lsl #8
    a4f0:	e5d41045 	ldrb	r1, [r4, #69]	; 0x45
    a4f4:	e1833801 	orr	r3, r3, r1, lsl #16
    a4f8:	e5d41046 	ldrb	r1, [r4, #70]	; 0x46
    a4fc:	e1831c01 	orr	r1, r3, r1, lsl #24
    a500:	e59f0090 	ldr	r0, [pc, #144]	; a598 <fat32_volume_id_print+0x2ac>
    a504:	eb000b72 	bl	d2d4 <printk>
    a508:	e28d1010 	add	r1, sp, #16, 0
    a50c:	e59f0088 	ldr	r0, [pc, #136]	; a59c <fat32_volume_id_print+0x2b0>
    a510:	eb000b6f 	bl	d2d4 <printk>
    a514:	e28d1004 	add	r1, sp, #4, 0
    a518:	e59f0080 	ldr	r0, [pc, #128]	; a5a0 <fat32_volume_id_print+0x2b4>
    a51c:	eb000b6c 	bl	d2d4 <printk>
    a520:	e5d431fe 	ldrb	r3, [r4, #510]	; 0x1fe
    a524:	e5d411ff 	ldrb	r1, [r4, #511]	; 0x1ff
    a528:	e1831401 	orr	r1, r3, r1, lsl #8
    a52c:	e59f0070 	ldr	r0, [pc, #112]	; a5a4 <fat32_volume_id_print+0x2b8>
    a530:	eb000b67 	bl	d2d4 <printk>
    a534:	e1a00004 	mov	r0, r4
    a538:	ebfffebe 	bl	a038 <fat32_volume_id_check>
    a53c:	e28dd02c 	add	sp, sp, #44, 0	; 0x2c
    a540:	e8bd8030 	pop	{r4, r5, pc}
    a544:	0000eba8 	.word	0x0000eba8
    a548:	0000edc8 	.word	0x0000edc8
    a54c:	0000ede4 	.word	0x0000ede4
    a550:	0000ee00 	.word	0x0000ee00
    a554:	0000ee1c 	.word	0x0000ee1c
    a558:	0000ee38 	.word	0x0000ee38
    a55c:	0000ee54 	.word	0x0000ee54
    a560:	0000ee70 	.word	0x0000ee70
    a564:	0000ee8c 	.word	0x0000ee8c
    a568:	0000eea8 	.word	0x0000eea8
    a56c:	0000eec4 	.word	0x0000eec4
    a570:	0000eee0 	.word	0x0000eee0
    a574:	0000eefc 	.word	0x0000eefc
    a578:	0000ef18 	.word	0x0000ef18
    a57c:	0000ef34 	.word	0x0000ef34
    a580:	0000ef50 	.word	0x0000ef50
    a584:	0000ef6c 	.word	0x0000ef6c
    a588:	0000ef88 	.word	0x0000ef88
    a58c:	0000efa4 	.word	0x0000efa4
    a590:	0000efc0 	.word	0x0000efc0
    a594:	0000efdc 	.word	0x0000efdc
    a598:	0000eff8 	.word	0x0000eff8
    a59c:	0000f014 	.word	0x0000f014
    a5a0:	0000f030 	.word	0x0000f030
    a5a4:	0000f04c 	.word	0x0000f04c

0000a5a8 <fat32_fsinfo_print>:
    a5a8:	e92d4010 	push	{r4, lr}
    a5ac:	e1a04001 	mov	r4, r1
    a5b0:	e1a01000 	mov	r1, r0
    a5b4:	e59f0040 	ldr	r0, [pc, #64]	; a5fc <fat32_fsinfo_print+0x54>
    a5b8:	eb000b45 	bl	d2d4 <printk>
    a5bc:	e5941000 	ldr	r1, [r4]
    a5c0:	e59f0038 	ldr	r0, [pc, #56]	; a600 <fat32_fsinfo_print+0x58>
    a5c4:	eb000b42 	bl	d2d4 <printk>
    a5c8:	e59411e4 	ldr	r1, [r4, #484]	; 0x1e4
    a5cc:	e59f0030 	ldr	r0, [pc, #48]	; a604 <fat32_fsinfo_print+0x5c>
    a5d0:	eb000b3f 	bl	d2d4 <printk>
    a5d4:	e59411fc 	ldr	r1, [r4, #508]	; 0x1fc
    a5d8:	e59f0028 	ldr	r0, [pc, #40]	; a608 <fat32_fsinfo_print+0x60>
    a5dc:	eb000b3c 	bl	d2d4 <printk>
    a5e0:	e59411e8 	ldr	r1, [r4, #488]	; 0x1e8
    a5e4:	e59f0020 	ldr	r0, [pc, #32]	; a60c <fat32_fsinfo_print+0x64>
    a5e8:	eb000b39 	bl	d2d4 <printk>
    a5ec:	e59411ec 	ldr	r1, [r4, #492]	; 0x1ec
    a5f0:	e59f0018 	ldr	r0, [pc, #24]	; a610 <fat32_fsinfo_print+0x68>
    a5f4:	eb000b36 	bl	d2d4 <printk>
    a5f8:	e8bd8010 	pop	{r4, pc}
    a5fc:	0000eba8 	.word	0x0000eba8
    a600:	0000f068 	.word	0x0000f068
    a604:	0000f084 	.word	0x0000f084
    a608:	0000f0a0 	.word	0x0000f0a0
    a60c:	0000f0bc 	.word	0x0000f0bc
    a610:	0000f0d8 	.word	0x0000f0d8

0000a614 <fat32_fsinfo_check>:
    a614:	e52de004 	push	{lr}		; (str lr, [sp, #-4]!)
    a618:	e24dd00c 	sub	sp, sp, #12, 0
    a61c:	e5902000 	ldr	r2, [r0]
    a620:	e59f308c 	ldr	r3, [pc, #140]	; a6b4 <fat32_fsinfo_check+0xa0>
    a624:	e1520003 	cmp	r2, r3
    a628:	1a000009 	bne	a654 <fat32_fsinfo_check+0x40>
    a62c:	e59021e4 	ldr	r2, [r0, #484]	; 0x1e4
    a630:	e59f3080 	ldr	r3, [pc, #128]	; a6b8 <fat32_fsinfo_check+0xa4>
    a634:	e1520003 	cmp	r2, r3
    a638:	1a00000d 	bne	a674 <fat32_fsinfo_check+0x60>
    a63c:	e59021fc 	ldr	r2, [r0, #508]	; 0x1fc
    a640:	e59f3074 	ldr	r3, [pc, #116]	; a6bc <fat32_fsinfo_check+0xa8>
    a644:	e1520003 	cmp	r2, r3
    a648:	1a000011 	bne	a694 <fat32_fsinfo_check+0x80>
    a64c:	e28dd00c 	add	sp, sp, #12, 0
    a650:	e49df004 	pop	{pc}		; (ldr pc, [sp], #4)
    a654:	e59f3064 	ldr	r3, [pc, #100]	; a6c0 <fat32_fsinfo_check+0xac>
    a658:	e58d3000 	str	r3, [sp]
    a65c:	e3a03057 	mov	r3, #87, 0	; 0x57
    a660:	e59f205c 	ldr	r2, [pc, #92]	; a6c4 <fat32_fsinfo_check+0xb0>
    a664:	e59f105c 	ldr	r1, [pc, #92]	; a6c8 <fat32_fsinfo_check+0xb4>
    a668:	e59f005c 	ldr	r0, [pc, #92]	; a6cc <fat32_fsinfo_check+0xb8>
    a66c:	eb000b18 	bl	d2d4 <printk>
    a670:	eb000c47 	bl	d794 <clean_reboot>
    a674:	e59f3054 	ldr	r3, [pc, #84]	; a6d0 <fat32_fsinfo_check+0xbc>
    a678:	e58d3000 	str	r3, [sp]
    a67c:	e3a03058 	mov	r3, #88, 0	; 0x58
    a680:	e59f203c 	ldr	r2, [pc, #60]	; a6c4 <fat32_fsinfo_check+0xb0>
    a684:	e59f103c 	ldr	r1, [pc, #60]	; a6c8 <fat32_fsinfo_check+0xb4>
    a688:	e59f003c 	ldr	r0, [pc, #60]	; a6cc <fat32_fsinfo_check+0xb8>
    a68c:	eb000b10 	bl	d2d4 <printk>
    a690:	eb000c3f 	bl	d794 <clean_reboot>
    a694:	e59f3038 	ldr	r3, [pc, #56]	; a6d4 <fat32_fsinfo_check+0xc0>
    a698:	e58d3000 	str	r3, [sp]
    a69c:	e3a03059 	mov	r3, #89, 0	; 0x59
    a6a0:	e59f201c 	ldr	r2, [pc, #28]	; a6c4 <fat32_fsinfo_check+0xb0>
    a6a4:	e59f101c 	ldr	r1, [pc, #28]	; a6c8 <fat32_fsinfo_check+0xb4>
    a6a8:	e59f001c 	ldr	r0, [pc, #28]	; a6cc <fat32_fsinfo_check+0xb8>
    a6ac:	eb000b08 	bl	d2d4 <printk>
    a6b0:	eb000c37 	bl	d794 <clean_reboot>
    a6b4:	41615252 	.word	0x41615252
    a6b8:	61417272 	.word	0x61417272
    a6bc:	aa550000 	.word	0xaa550000
    a6c0:	0000f0f4 	.word	0x0000f0f4
    a6c4:	0000f42c 	.word	0x0000f42c
    a6c8:	0000eca0 	.word	0x0000eca0
    a6cc:	0000e094 	.word	0x0000e094
    a6d0:	0000f110 	.word	0x0000f110
    a6d4:	0000f12c 	.word	0x0000f12c

0000a6d8 <fat32_fat_entry_type_str>:
    a6d8:	e370029f 	cmn	r0, #-268435447	; 0xf0000009
    a6dc:	0a000015 	beq	a738 <fat32_fat_entry_type_str+0x60>
    a6e0:	8a000005 	bhi	a6fc <fat32_fat_entry_type_str+0x24>
    a6e4:	e3500000 	cmp	r0, #0, 0
    a6e8:	0a000014 	beq	a740 <fat32_fat_entry_type_str+0x68>
    a6ec:	e3500001 	cmp	r0, #1, 0
    a6f0:	1a000007 	bne	a714 <fat32_fat_entry_type_str+0x3c>
    a6f4:	e59f0054 	ldr	r0, [pc, #84]	; a750 <fat32_fat_entry_type_str+0x78>
    a6f8:	e12fff1e 	bx	lr
    a6fc:	e370028f 	cmn	r0, #-268435448	; 0xf0000008
    a700:	0a000010 	beq	a748 <fat32_fat_entry_type_str+0x70>
    a704:	e370027f 	cmn	r0, #-268435449	; 0xf0000007
    a708:	1a000001 	bne	a714 <fat32_fat_entry_type_str+0x3c>
    a70c:	e59f0040 	ldr	r0, [pc, #64]	; a754 <fat32_fat_entry_type_str+0x7c>
    a710:	e12fff1e 	bx	lr
    a714:	e52de004 	push	{lr}		; (str lr, [sp, #-4]!)
    a718:	e24dd00c 	sub	sp, sp, #12, 0
    a71c:	e58d0000 	str	r0, [sp]
    a720:	e3a03067 	mov	r3, #103, 0	; 0x67
    a724:	e59f202c 	ldr	r2, [pc, #44]	; a758 <fat32_fat_entry_type_str+0x80>
    a728:	e59f102c 	ldr	r1, [pc, #44]	; a75c <fat32_fat_entry_type_str+0x84>
    a72c:	e59f002c 	ldr	r0, [pc, #44]	; a760 <fat32_fat_entry_type_str+0x88>
    a730:	eb000ae7 	bl	d2d4 <printk>
    a734:	eb000c16 	bl	d794 <clean_reboot>
    a738:	e59f0024 	ldr	r0, [pc, #36]	; a764 <fat32_fat_entry_type_str+0x8c>
    a73c:	e12fff1e 	bx	lr
    a740:	e59f0020 	ldr	r0, [pc, #32]	; a768 <fat32_fat_entry_type_str+0x90>
    a744:	e12fff1e 	bx	lr
    a748:	e59f001c 	ldr	r0, [pc, #28]	; a76c <fat32_fat_entry_type_str+0x94>
    a74c:	e12fff1e 	bx	lr
    a750:	0000f174 	.word	0x0000f174
    a754:	0000f188 	.word	0x0000f188
    a758:	0000f440 	.word	0x0000f440
    a75c:	0000eca0 	.word	0x0000eca0
    a760:	0000f198 	.word	0x0000f198
    a764:	0000f148 	.word	0x0000f148
    a768:	0000f154 	.word	0x0000f154
    a76c:	0000f164 	.word	0x0000f164

0000a770 <fat32_fat_entry_type>:
    a770:	e3c0020f 	bic	r0, r0, #-268435456	; 0xf0000000
    a774:	e3500001 	cmp	r0, #1, 0
    a778:	912fff1e 	bxls	lr
    a77c:	e370029f 	cmn	r0, #-268435447	; 0xf0000009
    a780:	012fff1e 	bxeq	lr
    a784:	e2402002 	sub	r2, r0, #2, 0
    a788:	e59f3074 	ldr	r3, [pc, #116]	; a804 <fat32_fat_entry_type+0x94>
    a78c:	e1520003 	cmp	r2, r3
    a790:	9a000019 	bls	a7fc <fat32_fat_entry_type+0x8c>
    a794:	e52de004 	push	{lr}		; (str lr, [sp, #-4]!)
    a798:	e24dd00c 	sub	sp, sp, #12, 0
    a79c:	e280320f 	add	r3, r0, #-268435456	; 0xf0000000
    a7a0:	e2833010 	add	r3, r3, #16, 0
    a7a4:	e3530006 	cmp	r3, #6, 0
    a7a8:	9a000005 	bls	a7c4 <fat32_fat_entry_type+0x54>
    a7ac:	e280328f 	add	r3, r0, #-268435448	; 0xf0000008
    a7b0:	e3530007 	cmp	r3, #7, 0
    a7b4:	8a000009 	bhi	a7e0 <fat32_fat_entry_type+0x70>
    a7b8:	e3e0027f 	mvn	r0, #-268435449	; 0xf0000007
    a7bc:	e28dd00c 	add	sp, sp, #12, 0
    a7c0:	e49df004 	pop	{pc}		; (ldr pc, [sp], #4)
    a7c4:	e58d0000 	str	r0, [sp]
    a7c8:	e3a03077 	mov	r3, #119, 0	; 0x77
    a7cc:	e59f2034 	ldr	r2, [pc, #52]	; a808 <fat32_fat_entry_type+0x98>
    a7d0:	e59f1034 	ldr	r1, [pc, #52]	; a80c <fat32_fat_entry_type+0x9c>
    a7d4:	e59f0034 	ldr	r0, [pc, #52]	; a810 <fat32_fat_entry_type+0xa0>
    a7d8:	eb000abd 	bl	d2d4 <printk>
    a7dc:	eb000bec 	bl	d794 <clean_reboot>
    a7e0:	e58d0000 	str	r0, [sp]
    a7e4:	e3a0307a 	mov	r3, #122, 0	; 0x7a
    a7e8:	e59f2018 	ldr	r2, [pc, #24]	; a808 <fat32_fat_entry_type+0x98>
    a7ec:	e59f1018 	ldr	r1, [pc, #24]	; a80c <fat32_fat_entry_type+0x9c>
    a7f0:	e59f001c 	ldr	r0, [pc, #28]	; a814 <fat32_fat_entry_type+0xa4>
    a7f4:	eb000ab6 	bl	d2d4 <printk>
    a7f8:	eb000be5 	bl	d794 <clean_reboot>
    a7fc:	e3e0026f 	mvn	r0, #-268435450	; 0xf0000006
    a800:	e12fff1e 	bx	lr
    a804:	0fffffed 	.word	0x0fffffed
    a808:	0000f45c 	.word	0x0000f45c
    a80c:	0000eca0 	.word	0x0000eca0
    a810:	0000f1b8 	.word	0x0000f1b8
    a814:	0000f1dc 	.word	0x0000f1dc

0000a818 <fat32_dirent_free>:
    a818:	e5d03000 	ldrb	r3, [r0]
    a81c:	e5d0200b 	ldrb	r2, [r0, #11]
    a820:	e352000f 	cmp	r2, #15, 0
    a824:	0a000005 	beq	a840 <fat32_dirent_free+0x28>
    a828:	e35300e5 	cmp	r3, #229, 0	; 0xe5
    a82c:	13a00000 	movne	r0, #0, 0
    a830:	03a00001 	moveq	r0, #1, 0
    a834:	e3530000 	cmp	r3, #0, 0
    a838:	03a00001 	moveq	r0, #1, 0
    a83c:	e12fff1e 	bx	lr
    a840:	e92d4010 	push	{r4, lr}
    a844:	eb00024f 	bl	b188 <fat32_dirent_is_deleted_lfn>
    a848:	e8bd8010 	pop	{r4, pc}

0000a84c <fat32_dir_attr_str>:
    a84c:	e350000f 	cmp	r0, #15, 0
    a850:	0a000063 	beq	a9e4 <fat32_dir_attr_str+0x198>
    a854:	e92d4010 	push	{r4, lr}
    a858:	e24dd008 	sub	sp, sp, #8, 0
    a85c:	e1a04000 	mov	r4, r0
    a860:	e59f3184 	ldr	r3, [pc, #388]	; a9ec <fat32_dir_attr_str+0x1a0>
    a864:	e3a02000 	mov	r2, #0, 0
    a868:	e5c32020 	strb	r2, [r3, #32]
    a86c:	0a00002a 	beq	a91c <fat32_dir_attr_str+0xd0>
    a870:	e2003001 	and	r3, r0, #1, 0
    a874:	e3530000 	cmp	r3, #0, 0
    a878:	1a00002b 	bne	a92c <fat32_dir_attr_str+0xe0>
    a87c:	e354000f 	cmp	r4, #15, 0
    a880:	0a00002e 	beq	a940 <fat32_dir_attr_str+0xf4>
    a884:	e3140002 	tst	r4, #2, 0
    a888:	13a03001 	movne	r3, #1, 0
    a88c:	03a03000 	moveq	r3, #0, 0
    a890:	e3530000 	cmp	r3, #0, 0
    a894:	1a00002d 	bne	a950 <fat32_dir_attr_str+0x104>
    a898:	e2443004 	sub	r3, r4, #4, 0
    a89c:	e353001c 	cmp	r3, #28, 0
    a8a0:	979ff103 	ldrls	pc, [pc, r3, lsl #2]
    a8a4:	ea000047 	b	a9c8 <fat32_dir_attr_str+0x17c>
    a8a8:	0000a964 	.word	0x0000a964
    a8ac:	0000a9c8 	.word	0x0000a9c8
    a8b0:	0000a9c8 	.word	0x0000a9c8
    a8b4:	0000a9c8 	.word	0x0000a9c8
    a8b8:	0000a980 	.word	0x0000a980
    a8bc:	0000a9c8 	.word	0x0000a9c8
    a8c0:	0000a9c8 	.word	0x0000a9c8
    a8c4:	0000a9c8 	.word	0x0000a9c8
    a8c8:	0000a9c8 	.word	0x0000a9c8
    a8cc:	0000a9c8 	.word	0x0000a9c8
    a8d0:	0000a9c8 	.word	0x0000a9c8
    a8d4:	0000a9c8 	.word	0x0000a9c8
    a8d8:	0000a998 	.word	0x0000a998
    a8dc:	0000a9c8 	.word	0x0000a9c8
    a8e0:	0000a9c8 	.word	0x0000a9c8
    a8e4:	0000a9c8 	.word	0x0000a9c8
    a8e8:	0000a9c8 	.word	0x0000a9c8
    a8ec:	0000a9c8 	.word	0x0000a9c8
    a8f0:	0000a9c8 	.word	0x0000a9c8
    a8f4:	0000a9c8 	.word	0x0000a9c8
    a8f8:	0000a9c8 	.word	0x0000a9c8
    a8fc:	0000a9c8 	.word	0x0000a9c8
    a900:	0000a9c8 	.word	0x0000a9c8
    a904:	0000a9c8 	.word	0x0000a9c8
    a908:	0000a9c8 	.word	0x0000a9c8
    a90c:	0000a9c8 	.word	0x0000a9c8
    a910:	0000a9c8 	.word	0x0000a9c8
    a914:	0000a9c8 	.word	0x0000a9c8
    a918:	0000a9b0 	.word	0x0000a9b0
    a91c:	e3500001 	cmp	r0, #1, 0
    a920:	13a03000 	movne	r3, #0, 0
    a924:	03a03001 	moveq	r3, #1, 0
    a928:	eaffffd1 	b	a874 <fat32_dir_attr_str+0x28>
    a92c:	e59f10bc 	ldr	r1, [pc, #188]	; a9f0 <fat32_dir_attr_str+0x1a4>
    a930:	e59f00bc 	ldr	r0, [pc, #188]	; a9f4 <fat32_dir_attr_str+0x1a8>
    a934:	eb000b6f 	bl	d6f8 <strcat>
    a938:	e3c44001 	bic	r4, r4, #1, 0
    a93c:	eaffffce 	b	a87c <fat32_dir_attr_str+0x30>
    a940:	e3540002 	cmp	r4, #2, 0
    a944:	13a03000 	movne	r3, #0, 0
    a948:	03a03001 	moveq	r3, #1, 0
    a94c:	eaffffcf 	b	a890 <fat32_dir_attr_str+0x44>
    a950:	e59f10a0 	ldr	r1, [pc, #160]	; a9f8 <fat32_dir_attr_str+0x1ac>
    a954:	e59f0098 	ldr	r0, [pc, #152]	; a9f4 <fat32_dir_attr_str+0x1a8>
    a958:	eb000b66 	bl	d6f8 <strcat>
    a95c:	e3c44002 	bic	r4, r4, #2, 0
    a960:	eaffffcc 	b	a898 <fat32_dir_attr_str+0x4c>
    a964:	e59f4088 	ldr	r4, [pc, #136]	; a9f4 <fat32_dir_attr_str+0x1a8>
    a968:	e59f108c 	ldr	r1, [pc, #140]	; a9fc <fat32_dir_attr_str+0x1b0>
    a96c:	e1a00004 	mov	r0, r4
    a970:	eb000b60 	bl	d6f8 <strcat>
    a974:	e1a00004 	mov	r0, r4
    a978:	e28dd008 	add	sp, sp, #8, 0
    a97c:	e8bd8010 	pop	{r4, pc}
    a980:	e59f406c 	ldr	r4, [pc, #108]	; a9f4 <fat32_dir_attr_str+0x1a8>
    a984:	e59f1074 	ldr	r1, [pc, #116]	; aa00 <fat32_dir_attr_str+0x1b4>
    a988:	e1a00004 	mov	r0, r4
    a98c:	eb000b59 	bl	d6f8 <strcat>
    a990:	e1a00004 	mov	r0, r4
    a994:	eafffff7 	b	a978 <fat32_dir_attr_str+0x12c>
    a998:	e59f4054 	ldr	r4, [pc, #84]	; a9f4 <fat32_dir_attr_str+0x1a8>
    a99c:	e59f1060 	ldr	r1, [pc, #96]	; aa04 <fat32_dir_attr_str+0x1b8>
    a9a0:	e1a00004 	mov	r0, r4
    a9a4:	eb000b53 	bl	d6f8 <strcat>
    a9a8:	e1a00004 	mov	r0, r4
    a9ac:	eafffff1 	b	a978 <fat32_dir_attr_str+0x12c>
    a9b0:	e59f403c 	ldr	r4, [pc, #60]	; a9f4 <fat32_dir_attr_str+0x1a8>
    a9b4:	e59f104c 	ldr	r1, [pc, #76]	; aa08 <fat32_dir_attr_str+0x1bc>
    a9b8:	e1a00004 	mov	r0, r4
    a9bc:	eb000b4d 	bl	d6f8 <strcat>
    a9c0:	e1a00004 	mov	r0, r4
    a9c4:	eaffffeb 	b	a978 <fat32_dir_attr_str+0x12c>
    a9c8:	e58d4000 	str	r4, [sp]
    a9cc:	e3a0309d 	mov	r3, #157, 0	; 0x9d
    a9d0:	e59f2034 	ldr	r2, [pc, #52]	; aa0c <fat32_dir_attr_str+0x1c0>
    a9d4:	e59f1034 	ldr	r1, [pc, #52]	; aa10 <fat32_dir_attr_str+0x1c4>
    a9d8:	e59f0034 	ldr	r0, [pc, #52]	; aa14 <fat32_dir_attr_str+0x1c8>
    a9dc:	eb000a3c 	bl	d2d4 <printk>
    a9e0:	eb000b6b 	bl	d794 <clean_reboot>
    a9e4:	e59f002c 	ldr	r0, [pc, #44]	; aa18 <fat32_dir_attr_str+0x1cc>
    a9e8:	e12fff1e 	bx	lr
    a9ec:	000108c8 	.word	0x000108c8
    a9f0:	0000f218 	.word	0x0000f218
    a9f4:	000108e8 	.word	0x000108e8
    a9f8:	0000f21c 	.word	0x0000f21c
    a9fc:	0000f224 	.word	0x0000f224
    aa00:	0000f234 	.word	0x0000f234
    aa04:	0000f244 	.word	0x0000f244
    aa08:	0000f24c 	.word	0x0000f24c
    aa0c:	0000f474 	.word	0x0000f474
    aa10:	0000eca0 	.word	0x0000eca0
    aa14:	0000f258 	.word	0x0000f258
    aa18:	0000f208 	.word	0x0000f208

0000aa1c <fat32_dirent_name>:
    aa1c:	e92d4010 	push	{r4, lr}
    aa20:	e1a04001 	mov	r4, r1
    aa24:	ebfffd54 	bl	9f7c <to_8dot3>
    aa28:	e1a01000 	mov	r1, r0
    aa2c:	e1a00004 	mov	r0, r4
    aa30:	eb000b48 	bl	d758 <strcpy>
    aa34:	e8bd8010 	pop	{r4, pc}

0000aa38 <fat32_is_valid_name>:
    aa38:	e92d4010 	push	{r4, lr}
    aa3c:	e1a04000 	mov	r4, r0
    aa40:	eb000b4c 	bl	d778 <strlen>
    aa44:	e1a0c000 	mov	ip, r0
    aa48:	e1a01000 	mov	r1, r0
    aa4c:	e3a03000 	mov	r3, #0, 0
    aa50:	e1a00003 	mov	r0, r3
    aa54:	ea000000 	b	aa5c <fat32_is_valid_name+0x24>
    aa58:	e2833001 	add	r3, r3, #1, 0
    aa5c:	e1530001 	cmp	r3, r1
    aa60:	aa000003 	bge	aa74 <fat32_is_valid_name+0x3c>
    aa64:	e7d42003 	ldrb	r2, [r4, r3]
    aa68:	e352002e 	cmp	r2, #46, 0	; 0x2e
    aa6c:	03a00001 	moveq	r0, #1, 0
    aa70:	eafffff8 	b	aa58 <fat32_is_valid_name+0x20>
    aa74:	e3500000 	cmp	r0, #0, 0
    aa78:	0a000019 	beq	aae4 <fat32_is_valid_name+0xac>
    aa7c:	e35c000c 	cmp	ip, #12, 0
    aa80:	ca00002a 	bgt	ab30 <fat32_is_valid_name+0xf8>
    aa84:	e35c0004 	cmp	ip, #4, 0
    aa88:	da00002a 	ble	ab38 <fat32_is_valid_name+0x100>
    aa8c:	e084c00c 	add	ip, r4, ip
    aa90:	e55c3004 	ldrb	r3, [ip, #-4]
    aa94:	e353002e 	cmp	r3, #46, 0	; 0x2e
    aa98:	1a000028 	bne	ab40 <fat32_is_valid_name+0x108>
    aa9c:	e3a02000 	mov	r2, #0, 0
    aaa0:	ea000000 	b	aaa8 <fat32_is_valid_name+0x70>
    aaa4:	e2822001 	add	r2, r2, #1, 0
    aaa8:	e1520001 	cmp	r2, r1
    aaac:	a8bd8010 	popge	{r4, pc}
    aab0:	e7d43002 	ldrb	r3, [r4, r2]
    aab4:	e243c041 	sub	ip, r3, #65, 0	; 0x41
    aab8:	e6efc07c 	uxtb	ip, ip
    aabc:	e2433030 	sub	r3, r3, #48, 0	; 0x30
    aac0:	e6ef3073 	uxtb	r3, r3
    aac4:	e35c0019 	cmp	ip, #25, 0
    aac8:	83530009 	cmphi	r3, #9, 0
    aacc:	9afffff4 	bls	aaa4 <fat32_is_valid_name+0x6c>
    aad0:	e2413004 	sub	r3, r1, #4, 0
    aad4:	e1530002 	cmp	r3, r2
    aad8:	0afffff1 	beq	aaa4 <fat32_is_valid_name+0x6c>
    aadc:	e3a00000 	mov	r0, #0, 0
    aae0:	e8bd8010 	pop	{r4, pc}
    aae4:	e35c0008 	cmp	ip, #8, 0
    aae8:	c8bd8010 	popgt	{r4, pc}
    aaec:	e35c0000 	cmp	ip, #0, 0
    aaf0:	d8bd8010 	pople	{r4, pc}
    aaf4:	e1a02000 	mov	r2, r0
    aaf8:	e1520001 	cmp	r2, r1
    aafc:	aa000009 	bge	ab28 <fat32_is_valid_name+0xf0>
    ab00:	e7d43002 	ldrb	r3, [r4, r2]
    ab04:	e243c041 	sub	ip, r3, #65, 0	; 0x41
    ab08:	e6efc07c 	uxtb	ip, ip
    ab0c:	e2433030 	sub	r3, r3, #48, 0	; 0x30
    ab10:	e6ef3073 	uxtb	r3, r3
    ab14:	e35c0019 	cmp	ip, #25, 0
    ab18:	83530009 	cmphi	r3, #9, 0
    ab1c:	88bd8010 	pophi	{r4, pc}
    ab20:	e2822001 	add	r2, r2, #1, 0
    ab24:	eafffff3 	b	aaf8 <fat32_is_valid_name+0xc0>
    ab28:	e3a00001 	mov	r0, #1, 0
    ab2c:	e8bd8010 	pop	{r4, pc}
    ab30:	e3a00000 	mov	r0, #0, 0
    ab34:	e8bd8010 	pop	{r4, pc}
    ab38:	e3a00000 	mov	r0, #0, 0
    ab3c:	e8bd8010 	pop	{r4, pc}
    ab40:	e3a00000 	mov	r0, #0, 0
    ab44:	e8bd8010 	pop	{r4, pc}

0000ab48 <fat32_dirent_set_name>:
    ab48:	e92d41f0 	push	{r4, r5, r6, r7, r8, lr}
    ab4c:	e24dd008 	sub	sp, sp, #8, 0
    ab50:	e1a07000 	mov	r7, r0
    ab54:	e1a04001 	mov	r4, r1
    ab58:	e1a00001 	mov	r0, r1
    ab5c:	eb000b05 	bl	d778 <strlen>
    ab60:	e1a06000 	mov	r6, r0
    ab64:	e1a05000 	mov	r5, r0
    ab68:	e1a00004 	mov	r0, r4
    ab6c:	ebffffb1 	bl	aa38 <fat32_is_valid_name>
    ab70:	e3500000 	cmp	r0, #0, 0
    ab74:	13a03000 	movne	r3, #0, 0
    ab78:	11a08003 	movne	r8, r3
    ab7c:	1a000008 	bne	aba4 <fat32_dirent_set_name+0x5c>
    ab80:	e59f308c 	ldr	r3, [pc, #140]	; ac14 <fat32_dirent_set_name+0xcc>
    ab84:	e58d3000 	str	r3, [sp]
    ab88:	e3a030da 	mov	r3, #218, 0	; 0xda
    ab8c:	e59f2084 	ldr	r2, [pc, #132]	; ac18 <fat32_dirent_set_name+0xd0>
    ab90:	e59f1084 	ldr	r1, [pc, #132]	; ac1c <fat32_dirent_set_name+0xd4>
    ab94:	e59f0084 	ldr	r0, [pc, #132]	; ac20 <fat32_dirent_set_name+0xd8>
    ab98:	eb0009cd 	bl	d2d4 <printk>
    ab9c:	eb000afc 	bl	d794 <clean_reboot>
    aba0:	e2833001 	add	r3, r3, #1, 0
    aba4:	e1530005 	cmp	r3, r5
    aba8:	aa000003 	bge	abbc <fat32_dirent_set_name+0x74>
    abac:	e7d42003 	ldrb	r2, [r4, r3]
    abb0:	e352002e 	cmp	r2, #46, 0	; 0x2e
    abb4:	03a08001 	moveq	r8, #1, 0
    abb8:	eafffff8 	b	aba0 <fat32_dirent_set_name+0x58>
    abbc:	e3a0200b 	mov	r2, #11, 0
    abc0:	e3a01020 	mov	r1, #32, 0
    abc4:	e1a00007 	mov	r0, r7
    abc8:	eb00098e 	bl	d208 <memset>
    abcc:	e3580000 	cmp	r8, #0, 0
    abd0:	0a00000a 	beq	ac00 <fat32_dirent_set_name+0xb8>
    abd4:	e2462004 	sub	r2, r6, #4, 0
    abd8:	e1a01004 	mov	r1, r4
    abdc:	e1a00007 	mov	r0, r7
    abe0:	eb000974 	bl	d1b8 <memcpy>
    abe4:	e2461003 	sub	r1, r6, #3, 0
    abe8:	e3a02003 	mov	r2, #3, 0
    abec:	e0841001 	add	r1, r4, r1
    abf0:	e2870008 	add	r0, r7, #8, 0
    abf4:	eb00096f 	bl	d1b8 <memcpy>
    abf8:	e28dd008 	add	sp, sp, #8, 0
    abfc:	e8bd81f0 	pop	{r4, r5, r6, r7, r8, pc}
    ac00:	e1a02006 	mov	r2, r6
    ac04:	e1a01004 	mov	r1, r4
    ac08:	e1a00007 	mov	r0, r7
    ac0c:	eb000969 	bl	d1b8 <memcpy>
    ac10:	eafffff8 	b	abf8 <fat32_dirent_set_name+0xb0>
    ac14:	0000f27c 	.word	0x0000f27c
    ac18:	0000f488 	.word	0x0000f488
    ac1c:	0000eca0 	.word	0x0000eca0
    ac20:	0000e094 	.word	0x0000e094

0000ac24 <fat32_dirent_print_helper>:
    ac24:	e92d4070 	push	{r4, r5, r6, lr}
    ac28:	e1a06000 	mov	r6, r0
    ac2c:	ebfffef9 	bl	a818 <fat32_dirent_free>
    ac30:	e2504000 	subs	r4, r0, #0, 0
    ac34:	1a00001c 	bne	acac <fat32_dirent_print_helper+0x88>
    ac38:	e5d6500b 	ldrb	r5, [r6, #11]
    ac3c:	e355000f 	cmp	r5, #15, 0
    ac40:	0a00001c 	beq	acb8 <fat32_dirent_print_helper+0x94>
    ac44:	e355000f 	cmp	r5, #15, 0
    ac48:	0a00001d 	beq	acc4 <fat32_dirent_print_helper+0xa0>
    ac4c:	e1a032a5 	lsr	r3, r5, #5
    ac50:	e2033001 	and	r3, r3, #1, 0
    ac54:	e3530000 	cmp	r3, #0, 0
    ac58:	1a00001d 	bne	acd4 <fat32_dirent_print_helper+0xb0>
    ac5c:	e355000f 	cmp	r5, #15, 0
    ac60:	0a00001e 	beq	ace0 <fat32_dirent_print_helper+0xbc>
    ac64:	e1a03225 	lsr	r3, r5, #4
    ac68:	e2033001 	and	r3, r3, #1, 0
    ac6c:	e3530000 	cmp	r3, #0, 0
    ac70:	0a00001e 	beq	acf0 <fat32_dirent_print_helper+0xcc>
    ac74:	e59f01b0 	ldr	r0, [pc, #432]	; ae2c <fat32_dirent_print_helper+0x208>
    ac78:	eb000995 	bl	d2d4 <printk>
    ac7c:	e1a00006 	mov	r0, r6
    ac80:	ebfffce0 	bl	a008 <add_nul>
    ac84:	e1a05000 	mov	r5, r0
    ac88:	e1a00006 	mov	r0, r6
    ac8c:	ebfffcba 	bl	9f7c <to_8dot3>
    ac90:	e1a02000 	mov	r2, r0
    ac94:	e1a01005 	mov	r1, r5
    ac98:	e59f0190 	ldr	r0, [pc, #400]	; ae30 <fat32_dirent_print_helper+0x20c>
    ac9c:	eb00098c 	bl	d2d4 <printk>
    aca0:	e59f018c 	ldr	r0, [pc, #396]	; ae34 <fat32_dirent_print_helper+0x210>
    aca4:	eb00098a 	bl	d2d4 <printk>
    aca8:	ea00002b 	b	ad5c <fat32_dirent_print_helper+0x138>
    acac:	e59f0184 	ldr	r0, [pc, #388]	; ae38 <fat32_dirent_print_helper+0x214>
    acb0:	eb000987 	bl	d2d4 <printk>
    acb4:	e8bd8070 	pop	{r4, r5, r6, pc}
    acb8:	e59f017c 	ldr	r0, [pc, #380]	; ae3c <fat32_dirent_print_helper+0x218>
    acbc:	eb000984 	bl	d2d4 <printk>
    acc0:	e8bd8070 	pop	{r4, r5, r6, pc}
    acc4:	e3550020 	cmp	r5, #32, 0
    acc8:	13a03000 	movne	r3, #0, 0
    accc:	03a03001 	moveq	r3, #1, 0
    acd0:	eaffffdf 	b	ac54 <fat32_dirent_print_helper+0x30>
    acd4:	e59f0164 	ldr	r0, [pc, #356]	; ae40 <fat32_dirent_print_helper+0x21c>
    acd8:	eb00097d 	bl	d2d4 <printk>
    acdc:	eaffffe4 	b	ac74 <fat32_dirent_print_helper+0x50>
    ace0:	e3550010 	cmp	r5, #16, 0
    ace4:	13a03000 	movne	r3, #0, 0
    ace8:	03a03001 	moveq	r3, #1, 0
    acec:	eaffffde 	b	ac6c <fat32_dirent_print_helper+0x48>
    acf0:	e1a00005 	mov	r0, r5
    acf4:	ebfffed4 	bl	a84c <fat32_dir_attr_str>
    acf8:	e1a02000 	mov	r2, r0
    acfc:	e1a01005 	mov	r1, r5
    ad00:	e59f013c 	ldr	r0, [pc, #316]	; ae44 <fat32_dirent_print_helper+0x220>
    ad04:	eb000972 	bl	d2d4 <printk>
    ad08:	e5d6300b 	ldrb	r3, [r6, #11]
    ad0c:	e353000f 	cmp	r3, #15, 0
    ad10:	0a000004 	beq	ad28 <fat32_dirent_print_helper+0x104>
    ad14:	e1a032a3 	lsr	r3, r3, #5
    ad18:	e2033001 	and	r3, r3, #1, 0
    ad1c:	e3530000 	cmp	r3, #0, 0
    ad20:	0affffd3 	beq	ac74 <fat32_dirent_print_helper+0x50>
    ad24:	e8bd8070 	pop	{r4, r5, r6, pc}
    ad28:	e3530020 	cmp	r3, #32, 0
    ad2c:	13a03000 	movne	r3, #0, 0
    ad30:	03a03001 	moveq	r3, #1, 0
    ad34:	eafffff8 	b	ad1c <fat32_dirent_print_helper+0xf8>
    ad38:	e59f00ec 	ldr	r0, [pc, #236]	; ae2c <fat32_dirent_print_helper+0x208>
    ad3c:	eb000964 	bl	d2d4 <printk>
    ad40:	e59f0100 	ldr	r0, [pc, #256]	; ae48 <fat32_dirent_print_helper+0x224>
    ad44:	eb000962 	bl	d2d4 <printk>
    ad48:	e7d61004 	ldrb	r1, [r6, r4]
    ad4c:	e1a02001 	mov	r2, r1
    ad50:	e59f00f4 	ldr	r0, [pc, #244]	; ae4c <fat32_dirent_print_helper+0x228>
    ad54:	eb00095e 	bl	d2d4 <printk>
    ad58:	e2844001 	add	r4, r4, #1, 0
    ad5c:	e354000a 	cmp	r4, #10, 0
    ad60:	8a000002 	bhi	ad70 <fat32_dirent_print_helper+0x14c>
    ad64:	e3540008 	cmp	r4, #8, 0
    ad68:	1afffff6 	bne	ad48 <fat32_dirent_print_helper+0x124>
    ad6c:	eafffff1 	b	ad38 <fat32_dirent_print_helper+0x114>
    ad70:	e59f00d8 	ldr	r0, [pc, #216]	; ae50 <fat32_dirent_print_helper+0x22c>
    ad74:	eb000956 	bl	d2d4 <printk>
    ad78:	e5d6100b 	ldrb	r1, [r6, #11]
    ad7c:	e59f00d0 	ldr	r0, [pc, #208]	; ae54 <fat32_dirent_print_helper+0x230>
    ad80:	eb000953 	bl	d2d4 <printk>
    ad84:	e5d6300b 	ldrb	r3, [r6, #11]
    ad88:	e353000f 	cmp	r3, #15, 0
    ad8c:	0a000009 	beq	adb8 <fat32_dirent_print_helper+0x194>
    ad90:	e3130001 	tst	r3, #1, 0
    ad94:	1a00001b 	bne	ae08 <fat32_dirent_print_helper+0x1e4>
    ad98:	e5d6300b 	ldrb	r3, [r6, #11]
    ad9c:	e3130002 	tst	r3, #2, 0
    ada0:	1a00001b 	bne	ae14 <fat32_dirent_print_helper+0x1f0>
    ada4:	e5d6300b 	ldrb	r3, [r6, #11]
    ada8:	e3130004 	tst	r3, #4, 0
    adac:	1a00001b 	bne	ae20 <fat32_dirent_print_helper+0x1fc>
    adb0:	e59f0074 	ldr	r0, [pc, #116]	; ae2c <fat32_dirent_print_helper+0x208>
    adb4:	eb000946 	bl	d2d4 <printk>
    adb8:	e5d63014 	ldrb	r3, [r6, #20]
    adbc:	e5d61015 	ldrb	r1, [r6, #21]
    adc0:	e1831401 	orr	r1, r3, r1, lsl #8
    adc4:	e59f008c 	ldr	r0, [pc, #140]	; ae58 <fat32_dirent_print_helper+0x234>
    adc8:	eb000941 	bl	d2d4 <printk>
    adcc:	e5d6301a 	ldrb	r3, [r6, #26]
    add0:	e5d6101b 	ldrb	r1, [r6, #27]
    add4:	e1831401 	orr	r1, r3, r1, lsl #8
    add8:	e59f007c 	ldr	r0, [pc, #124]	; ae5c <fat32_dirent_print_helper+0x238>
    addc:	eb00093c 	bl	d2d4 <printk>
    ade0:	e5d6301c 	ldrb	r3, [r6, #28]
    ade4:	e5d6101d 	ldrb	r1, [r6, #29]
    ade8:	e1833401 	orr	r3, r3, r1, lsl #8
    adec:	e5d6101e 	ldrb	r1, [r6, #30]
    adf0:	e1833801 	orr	r3, r3, r1, lsl #16
    adf4:	e5d6101f 	ldrb	r1, [r6, #31]
    adf8:	e1831c01 	orr	r1, r3, r1, lsl #24
    adfc:	e59f005c 	ldr	r0, [pc, #92]	; ae60 <fat32_dirent_print_helper+0x23c>
    ae00:	eb000933 	bl	d2d4 <printk>
    ae04:	e8bd8070 	pop	{r4, r5, r6, pc}
    ae08:	e59f0054 	ldr	r0, [pc, #84]	; ae64 <fat32_dirent_print_helper+0x240>
    ae0c:	eb000930 	bl	d2d4 <printk>
    ae10:	eaffffe0 	b	ad98 <fat32_dirent_print_helper+0x174>
    ae14:	e59f004c 	ldr	r0, [pc, #76]	; ae68 <fat32_dirent_print_helper+0x244>
    ae18:	eb00092d 	bl	d2d4 <printk>
    ae1c:	eaffffe0 	b	ada4 <fat32_dirent_print_helper+0x180>
    ae20:	e59f0044 	ldr	r0, [pc, #68]	; ae6c <fat32_dirent_print_helper+0x248>
    ae24:	eb00092a 	bl	d2d4 <printk>
    ae28:	eaffffe0 	b	adb0 <fat32_dirent_print_helper+0x18c>
    ae2c:	0000e5b8 	.word	0x0000e5b8
    ae30:	0000f310 	.word	0x0000f310
    ae34:	0000f334 	.word	0x0000f334
    ae38:	0000f298 	.word	0x0000f298
    ae3c:	0000f2b4 	.word	0x0000f2b4
    ae40:	0000f2c8 	.word	0x0000f2c8
    ae44:	0000f2f0 	.word	0x0000f2f0
    ae48:	0000f348 	.word	0x0000f348
    ae4c:	0000f350 	.word	0x0000f350
    ae50:	0000f35c 	.word	0x0000f35c
    ae54:	0000f360 	.word	0x0000f360
    ae58:	0000f3ac 	.word	0x0000f3ac
    ae5c:	0000f3c4 	.word	0x0000f3c4
    ae60:	0000f3dc 	.word	0x0000f3dc
    ae64:	0000f374 	.word	0x0000f374
    ae68:	0000f384 	.word	0x0000f384
    ae6c:	0000f390 	.word	0x0000f390

0000ae70 <fat32_dirent_print>:
    ae70:	e92d4010 	push	{r4, lr}
    ae74:	e1a04001 	mov	r4, r1
    ae78:	e1a01000 	mov	r1, r0
    ae7c:	e59f000c 	ldr	r0, [pc, #12]	; ae90 <fat32_dirent_print+0x20>
    ae80:	eb000913 	bl	d2d4 <printk>
    ae84:	e1a00004 	mov	r0, r4
    ae88:	ebffff65 	bl	ac24 <fat32_dirent_print_helper>
    ae8c:	e8bd8010 	pop	{r4, pc}
    ae90:	0000f3f4 	.word	0x0000f3f4

0000ae94 <fat32_dir_lookup>:
    ae94:	e92d41f0 	push	{r4, r5, r6, r7, r8, lr}
    ae98:	e1a08000 	mov	r8, r0
    ae9c:	e1a07001 	mov	r7, r1
    aea0:	e1a06002 	mov	r6, r2
    aea4:	e3a04000 	mov	r4, #0, 0
    aea8:	ea000000 	b	aeb0 <fat32_dir_lookup+0x1c>
    aeac:	e2844001 	add	r4, r4, #1, 0
    aeb0:	e1540006 	cmp	r4, r6
    aeb4:	2a00000e 	bcs	aef4 <fat32_dir_lookup+0x60>
    aeb8:	e0875284 	add	r5, r7, r4, lsl #5
    aebc:	e1a00005 	mov	r0, r5
    aec0:	ebfffe54 	bl	a818 <fat32_dirent_free>
    aec4:	e3500000 	cmp	r0, #0, 0
    aec8:	1afffff7 	bne	aeac <fat32_dir_lookup+0x18>
    aecc:	e5d5300b 	ldrb	r3, [r5, #11]
    aed0:	e353000f 	cmp	r3, #15, 0
    aed4:	0afffff4 	beq	aeac <fat32_dir_lookup+0x18>
    aed8:	e3a0200b 	mov	r2, #11, 0
    aedc:	e1a01005 	mov	r1, r5
    aee0:	e1a00008 	mov	r0, r8
    aee4:	eb0008a6 	bl	d184 <memcmp>
    aee8:	e3500000 	cmp	r0, #0, 0
    aeec:	1affffee 	bne	aeac <fat32_dir_lookup+0x18>
    aef0:	ea000000 	b	aef8 <fat32_dir_lookup+0x64>
    aef4:	e3e04000 	mvn	r4, #0, 0
    aef8:	e1a00004 	mov	r0, r4
    aefc:	e8bd81f0 	pop	{r4, r5, r6, r7, r8, pc}

0000af00 <print_as_string>:
    af00:	e92d4070 	push	{r4, r5, r6, lr}
    af04:	e1a06001 	mov	r6, r1
    af08:	e1a05002 	mov	r5, r2
    af0c:	e1a01000 	mov	r1, r0
    af10:	e59f002c 	ldr	r0, [pc, #44]	; af44 <print_as_string+0x44>
    af14:	eb0008ee 	bl	d2d4 <printk>
    af18:	e3a04000 	mov	r4, #0, 0
    af1c:	e1540005 	cmp	r4, r5
    af20:	aa000004 	bge	af38 <print_as_string+0x38>
    af24:	e7d61004 	ldrb	r1, [r6, r4]
    af28:	e59f0018 	ldr	r0, [pc, #24]	; af48 <print_as_string+0x48>
    af2c:	eb0008e8 	bl	d2d4 <printk>
    af30:	e2844001 	add	r4, r4, #1, 0
    af34:	eafffff8 	b	af1c <print_as_string+0x1c>
    af38:	e59f000c 	ldr	r0, [pc, #12]	; af4c <print_as_string+0x4c>
    af3c:	eb0008e4 	bl	d2d4 <printk>
    af40:	e8bd8070 	pop	{r4, r5, r6, pc}
    af44:	0000e090 	.word	0x0000e090
    af48:	0000f3fc 	.word	0x0000f3fc
    af4c:	0000e5b8 	.word	0x0000e5b8

0000af50 <print_bytes>:
    af50:	e92d41f0 	push	{r4, r5, r6, r7, r8, lr}
    af54:	e1a07001 	mov	r7, r1
    af58:	e1a06002 	mov	r6, r2
    af5c:	e1a01000 	mov	r1, r0
    af60:	e59f0044 	ldr	r0, [pc, #68]	; afac <print_bytes+0x5c>
    af64:	eb0008da 	bl	d2d4 <printk>
    af68:	e3a04000 	mov	r4, #0, 0
    af6c:	ea000005 	b	af88 <print_bytes+0x38>
    af70:	e59f0038 	ldr	r0, [pc, #56]	; afb0 <print_bytes+0x60>
    af74:	eb0008d6 	bl	d2d4 <printk>
    af78:	e7d71005 	ldrb	r1, [r7, r5]
    af7c:	e59f0030 	ldr	r0, [pc, #48]	; afb4 <print_bytes+0x64>
    af80:	eb0008d3 	bl	d2d4 <printk>
    af84:	e2844001 	add	r4, r4, #1, 0
    af88:	e1540006 	cmp	r4, r6
    af8c:	aa000003 	bge	afa0 <print_bytes+0x50>
    af90:	e1a05004 	mov	r5, r4
    af94:	e314000f 	tst	r4, #15, 0
    af98:	1afffff6 	bne	af78 <print_bytes+0x28>
    af9c:	eafffff3 	b	af70 <print_bytes+0x20>
    afa0:	e59f0010 	ldr	r0, [pc, #16]	; afb8 <print_bytes+0x68>
    afa4:	eb0008ca 	bl	d2d4 <printk>
    afa8:	e8bd81f0 	pop	{r4, r5, r6, r7, r8, pc}
    afac:	0000e090 	.word	0x0000e090
    afb0:	0000f400 	.word	0x0000f400
    afb4:	0000f404 	.word	0x0000f404
    afb8:	0000e5b8 	.word	0x0000e5b8

0000afbc <print_words>:
    afbc:	e92d41f0 	push	{r4, r5, r6, r7, r8, lr}
    afc0:	e1a07001 	mov	r7, r1
    afc4:	e1a06002 	mov	r6, r2
    afc8:	e1a01000 	mov	r1, r0
    afcc:	e59f0044 	ldr	r0, [pc, #68]	; b018 <print_words+0x5c>
    afd0:	eb0008bf 	bl	d2d4 <printk>
    afd4:	e3a04000 	mov	r4, #0, 0
    afd8:	ea000005 	b	aff4 <print_words+0x38>
    afdc:	e59f0038 	ldr	r0, [pc, #56]	; b01c <print_words+0x60>
    afe0:	eb0008bb 	bl	d2d4 <printk>
    afe4:	e7971105 	ldr	r1, [r7, r5, lsl #2]
    afe8:	e59f0030 	ldr	r0, [pc, #48]	; b020 <print_words+0x64>
    afec:	eb0008b8 	bl	d2d4 <printk>
    aff0:	e2844001 	add	r4, r4, #1, 0
    aff4:	e1540006 	cmp	r4, r6
    aff8:	aa000003 	bge	b00c <print_words+0x50>
    affc:	e1a05004 	mov	r5, r4
    b000:	e314000f 	tst	r4, #15, 0
    b004:	1afffff6 	bne	afe4 <print_words+0x28>
    b008:	eafffff3 	b	afdc <print_words+0x20>
    b00c:	e59f0010 	ldr	r0, [pc, #16]	; b024 <print_words+0x68>
    b010:	eb0008af 	bl	d2d4 <printk>
    b014:	e8bd81f0 	pop	{r4, r5, r6, r7, r8, pc}
    b018:	0000e090 	.word	0x0000e090
    b01c:	0000f400 	.word	0x0000f400
    b020:	0000f40c 	.word	0x0000f40c
    b024:	0000e5b8 	.word	0x0000e5b8

0000b028 <utf8_append>:
    b028:	e92d41f0 	push	{r4, r5, r6, r7, r8, lr}
    b02c:	e24dd008 	sub	sp, sp, #8, 0
    b030:	e3120001 	tst	r2, #1, 0
    b034:	1a000004 	bne	b04c <utf8_append+0x24>
    b038:	e1a07000 	mov	r7, r0
    b03c:	e1a06001 	mov	r6, r1
    b040:	e1a08002 	mov	r8, r2
    b044:	e3a04000 	mov	r4, #0, 0
    b048:	ea000015 	b	b0a4 <utf8_append+0x7c>
    b04c:	e59f3094 	ldr	r3, [pc, #148]	; b0e8 <utf8_append+0xc0>
    b050:	e58d3000 	str	r3, [sp]
    b054:	e3a03044 	mov	r3, #68, 0	; 0x44
    b058:	e59f208c 	ldr	r2, [pc, #140]	; b0ec <utf8_append+0xc4>
    b05c:	e59f108c 	ldr	r1, [pc, #140]	; b0f0 <utf8_append+0xc8>
    b060:	e59f008c 	ldr	r0, [pc, #140]	; b0f4 <utf8_append+0xcc>
    b064:	eb00089a 	bl	d2d4 <printk>
    b068:	eb0009c9 	bl	d794 <clean_reboot>
    b06c:	e35300ff 	cmp	r3, #255, 0	; 0xff
    b070:	0a000018 	beq	b0d8 <utf8_append+0xb0>
    b074:	e0861001 	add	r1, r6, r1
    b078:	e5d10001 	ldrb	r0, [r1, #1]
    b07c:	e1830400 	orr	r0, r3, r0, lsl #8
    b080:	eb000230 	bl	b948 <to_utf8>
    b084:	e1a05000 	mov	r5, r0
    b088:	e1a01000 	mov	r1, r0
    b08c:	e1a00007 	mov	r0, r7
    b090:	eb000998 	bl	d6f8 <strcat>
    b094:	e1a00005 	mov	r0, r5
    b098:	eb0009b6 	bl	d778 <strlen>
    b09c:	e0877000 	add	r7, r7, r0
    b0a0:	e2844002 	add	r4, r4, #2, 0
    b0a4:	e1a01004 	mov	r1, r4
    b0a8:	e1540008 	cmp	r4, r8
    b0ac:	2a000006 	bcs	b0cc <utf8_append+0xa4>
    b0b0:	e0862004 	add	r2, r6, r4
    b0b4:	e7d63004 	ldrb	r3, [r6, r4]
    b0b8:	e3530000 	cmp	r3, #0, 0
    b0bc:	1affffea 	bne	b06c <utf8_append+0x44>
    b0c0:	e5d20001 	ldrb	r0, [r2, #1]
    b0c4:	e3500000 	cmp	r0, #0, 0
    b0c8:	1affffe7 	bne	b06c <utf8_append+0x44>
    b0cc:	e1a00007 	mov	r0, r7
    b0d0:	e28dd008 	add	sp, sp, #8, 0
    b0d4:	e8bd81f0 	pop	{r4, r5, r6, r7, r8, pc}
    b0d8:	e5d22001 	ldrb	r2, [r2, #1]
    b0dc:	e35200ff 	cmp	r2, #255, 0	; 0xff
    b0e0:	1affffe3 	bne	b074 <utf8_append+0x4c>
    b0e4:	eafffff8 	b	b0cc <utf8_append+0xa4>
    b0e8:	0000f4b8 	.word	0x0000f4b8
    b0ec:	0000f738 	.word	0x0000f738
    b0f0:	0000f4a0 	.word	0x0000f4a0
    b0f4:	0000e094 	.word	0x0000e094

0000b0f8 <is_attr>:
    b0f8:	e350000f 	cmp	r0, #15, 0
    b0fc:	0a000003 	beq	b110 <is_attr+0x18>
    b100:	e1d13000 	bics	r3, r1, r0
    b104:	03a00001 	moveq	r0, #1, 0
    b108:	13a00000 	movne	r0, #0, 0
    b10c:	e12fff1e 	bx	lr
    b110:	e1500001 	cmp	r0, r1
    b114:	13a00000 	movne	r0, #0, 0
    b118:	03a00001 	moveq	r0, #1, 0
    b11c:	e12fff1e 	bx	lr

0000b120 <lfn_checksum>:
    b120:	e1a03000 	mov	r3, r0
    b124:	e3a0100b 	mov	r1, #11, 0
    b128:	e3a00000 	mov	r0, #0, 0
    b12c:	ea000005 	b	b148 <lfn_checksum+0x28>
    b130:	e1a020a0 	lsr	r2, r0, #1
    b134:	e0820380 	add	r0, r2, r0, lsl #7
    b138:	e4d32001 	ldrb	r2, [r3], #1
    b13c:	e6e20070 	uxtab	r0, r2, r0
    b140:	e6ef0070 	uxtb	r0, r0
    b144:	e2411001 	sub	r1, r1, #1, 0
    b148:	e3510000 	cmp	r1, #0, 0
    b14c:	1afffff7 	bne	b130 <lfn_checksum+0x10>
    b150:	e12fff1e 	bx	lr

0000b154 <lfn_is_last>:
    b154:	e1a00320 	lsr	r0, r0, #6
    b158:	e2000001 	and	r0, r0, #1, 0
    b15c:	e12fff1e 	bx	lr

0000b160 <lfn_is_first>:
    b160:	e20000bf 	and	r0, r0, #191, 0	; 0xbf
    b164:	e3500001 	cmp	r0, #1, 0
    b168:	13a00000 	movne	r0, #0, 0
    b16c:	03a00001 	moveq	r0, #1, 0
    b170:	e12fff1e 	bx	lr

0000b174 <lfn_is_deleted>:
    b174:	e20000e5 	and	r0, r0, #229, 0	; 0xe5
    b178:	e35000e5 	cmp	r0, #229, 0	; 0xe5
    b17c:	13a00000 	movne	r0, #0, 0
    b180:	03a00001 	moveq	r0, #1, 0
    b184:	e12fff1e 	bx	lr

0000b188 <fat32_dirent_is_deleted_lfn>:
    b188:	e52de004 	push	{lr}		; (str lr, [sp, #-4]!)
    b18c:	e24dd00c 	sub	sp, sp, #12, 0
    b190:	e5d0300b 	ldrb	r3, [r0, #11]
    b194:	e353000f 	cmp	r3, #15, 0
    b198:	1a000003 	bne	b1ac <fat32_dirent_is_deleted_lfn+0x24>
    b19c:	e5d00000 	ldrb	r0, [r0]
    b1a0:	ebfffff3 	bl	b174 <lfn_is_deleted>
    b1a4:	e28dd00c 	add	sp, sp, #12, 0
    b1a8:	e49df004 	pop	{pc}		; (ldr pc, [sp], #4)
    b1ac:	e59f3018 	ldr	r3, [pc, #24]	; b1cc <fat32_dirent_is_deleted_lfn+0x44>
    b1b0:	e58d3000 	str	r3, [sp]
    b1b4:	e3a03021 	mov	r3, #33, 0	; 0x21
    b1b8:	e59f2010 	ldr	r2, [pc, #16]	; b1d0 <fat32_dirent_is_deleted_lfn+0x48>
    b1bc:	e59f1010 	ldr	r1, [pc, #16]	; b1d4 <fat32_dirent_is_deleted_lfn+0x4c>
    b1c0:	e59f0010 	ldr	r0, [pc, #16]	; b1d8 <fat32_dirent_is_deleted_lfn+0x50>
    b1c4:	eb000842 	bl	d2d4 <printk>
    b1c8:	eb000971 	bl	d794 <clean_reboot>
    b1cc:	0000f4c8 	.word	0x0000f4c8
    b1d0:	0000f744 	.word	0x0000f744
    b1d4:	0000f4a0 	.word	0x0000f4a0
    b1d8:	0000e094 	.word	0x0000e094

0000b1dc <lfn_print_ent>:
    b1dc:	e92d43f0 	push	{r4, r5, r6, r7, r8, r9, lr}
    b1e0:	e24dd02c 	sub	sp, sp, #44, 0	; 0x2c
    b1e4:	e1a05000 	mov	r5, r0
    b1e8:	e1a06001 	mov	r6, r1
    b1ec:	e1a07000 	mov	r7, r0
    b1f0:	e4d74001 	ldrb	r4, [r7], #1
    b1f4:	e1a00004 	mov	r0, r4
    b1f8:	ebffffd8 	bl	b160 <lfn_is_first>
    b1fc:	e1a08000 	mov	r8, r0
    b200:	e1a00004 	mov	r0, r4
    b204:	ebffffd2 	bl	b154 <lfn_is_last>
    b208:	e1a09000 	mov	r9, r0
    b20c:	e1a00004 	mov	r0, r4
    b210:	ebffffd7 	bl	b174 <lfn_is_deleted>
    b214:	e58d0000 	str	r0, [sp]
    b218:	e1a03009 	mov	r3, r9
    b21c:	e1a02008 	mov	r2, r8
    b220:	e1a01004 	mov	r1, r4
    b224:	e59f009c 	ldr	r0, [pc, #156]	; b2c8 <lfn_print_ent+0xec>
    b228:	eb000829 	bl	d2d4 <printk>
    b22c:	e3a0200a 	mov	r2, #10, 0
    b230:	e1a01007 	mov	r1, r7
    b234:	e28d000c 	add	r0, sp, #12, 0
    b238:	eb0007de 	bl	d1b8 <memcpy>
    b23c:	e3a0200c 	mov	r2, #12, 0
    b240:	e285100e 	add	r1, r5, #14, 0
    b244:	e28d0016 	add	r0, sp, #22, 0
    b248:	eb0007da 	bl	d1b8 <memcpy>
    b24c:	e3a02004 	mov	r2, #4, 0
    b250:	e285101c 	add	r1, r5, #28, 0
    b254:	e28d0022 	add	r0, sp, #34, 0	; 0x22
    b258:	eb0007d6 	bl	d1b8 <memcpy>
    b25c:	e3a04000 	mov	r4, #0, 0
    b260:	e5cd4026 	strb	r4, [sp, #38]	; 0x26
    b264:	ea000004 	b	b27c <lfn_print_ent+0xa0>
    b268:	e1a03002 	mov	r3, r2
    b26c:	e1a01004 	mov	r1, r4
    b270:	e59f0054 	ldr	r0, [pc, #84]	; b2cc <lfn_print_ent+0xf0>
    b274:	eb000816 	bl	d2d4 <printk>
    b278:	e2844002 	add	r4, r4, #2, 0
    b27c:	e3540019 	cmp	r4, #25, 0
    b280:	ca00000a 	bgt	b2b0 <lfn_print_ent+0xd4>
    b284:	e28d3028 	add	r3, sp, #40, 0	; 0x28
    b288:	e0833004 	add	r3, r3, r4
    b28c:	e553201c 	ldrb	r2, [r3, #-28]	; 0xffffffe4
    b290:	e3520000 	cmp	r2, #0, 0
    b294:	1afffff3 	bne	b268 <lfn_print_ent+0x8c>
    b298:	e2843001 	add	r3, r4, #1, 0
    b29c:	e28d1028 	add	r1, sp, #40, 0	; 0x28
    b2a0:	e0813003 	add	r3, r1, r3
    b2a4:	e553301c 	ldrb	r3, [r3, #-28]	; 0xffffffe4
    b2a8:	e3530000 	cmp	r3, #0, 0
    b2ac:	1affffed 	bne	b268 <lfn_print_ent+0x8c>
    b2b0:	e1a02006 	mov	r2, r6
    b2b4:	e5d5100d 	ldrb	r1, [r5, #13]
    b2b8:	e59f0010 	ldr	r0, [pc, #16]	; b2d0 <lfn_print_ent+0xf4>
    b2bc:	eb000804 	bl	d2d4 <printk>
    b2c0:	e28dd02c 	add	sp, sp, #44, 0	; 0x2c
    b2c4:	e8bd83f0 	pop	{r4, r5, r6, r7, r8, r9, pc}
    b2c8:	0000f4e8 	.word	0x0000f4e8
    b2cc:	0000f514 	.word	0x0000f514
    b2d0:	0000f52c 	.word	0x0000f52c

0000b2d4 <lfn_get_name>:
    b2d4:	e92d4070 	push	{r4, r5, r6, lr}
    b2d8:	e24dd008 	sub	sp, sp, #8, 0
    b2dc:	e1a06000 	mov	r6, r0
    b2e0:	e59f0080 	ldr	r0, [pc, #128]	; b368 <lfn_get_name+0x94>
    b2e4:	e3a03000 	mov	r3, #0, 0
    b2e8:	e5c03000 	strb	r3, [r0]
    b2ec:	e2415001 	sub	r5, r1, #1, 0
    b2f0:	e3550000 	cmp	r5, #0, 0
    b2f4:	ba000016 	blt	b354 <lfn_get_name+0x80>
    b2f8:	e0864285 	add	r4, r6, r5, lsl #5
    b2fc:	e5d4300b 	ldrb	r3, [r4, #11]
    b300:	e353000f 	cmp	r3, #15, 0
    b304:	1a00000a 	bne	b334 <lfn_get_name+0x60>
    b308:	e3a0200a 	mov	r2, #10, 0
    b30c:	e2841001 	add	r1, r4, #1, 0
    b310:	ebffff44 	bl	b028 <utf8_append>
    b314:	e3a0200c 	mov	r2, #12, 0
    b318:	e284100e 	add	r1, r4, #14, 0
    b31c:	ebffff41 	bl	b028 <utf8_append>
    b320:	e3a02004 	mov	r2, #4, 0
    b324:	e284101c 	add	r1, r4, #28, 0
    b328:	ebffff3e 	bl	b028 <utf8_append>
    b32c:	e2455001 	sub	r5, r5, #1, 0
    b330:	eaffffee 	b	b2f0 <lfn_get_name+0x1c>
    b334:	e59f3030 	ldr	r3, [pc, #48]	; b36c <lfn_get_name+0x98>
    b338:	e58d3000 	str	r3, [sp]
    b33c:	e3a03055 	mov	r3, #85, 0	; 0x55
    b340:	e59f2028 	ldr	r2, [pc, #40]	; b370 <lfn_get_name+0x9c>
    b344:	e59f1028 	ldr	r1, [pc, #40]	; b374 <lfn_get_name+0xa0>
    b348:	e59f0028 	ldr	r0, [pc, #40]	; b378 <lfn_get_name+0xa4>
    b34c:	eb0007e0 	bl	d2d4 <printk>
    b350:	eb00090f 	bl	d794 <clean_reboot>
    b354:	e3a03000 	mov	r3, #0, 0
    b358:	e5c03000 	strb	r3, [r0]
    b35c:	e59f0004 	ldr	r0, [pc, #4]	; b368 <lfn_get_name+0x94>
    b360:	e28dd008 	add	sp, sp, #8, 0
    b364:	e8bd8070 	pop	{r4, r5, r6, pc}
    b368:	00010968 	.word	0x00010968
    b36c:	0000f548 	.word	0x0000f548
    b370:	0000f760 	.word	0x0000f760
    b374:	0000f4a0 	.word	0x0000f4a0
    b378:	0000e094 	.word	0x0000e094

0000b37c <lfn_print>:
    b37c:	e92d43f0 	push	{r4, r5, r6, r7, r8, r9, lr}
    b380:	e24dd00c 	sub	sp, sp, #12, 0
    b384:	e2518000 	subs	r8, r1, #0, 0
    b388:	da000007 	ble	b3ac <lfn_print+0x30>
    b38c:	e1a06000 	mov	r6, r0
    b390:	e1a07002 	mov	r7, r2
    b394:	e1a09003 	mov	r9, r3
    b398:	e2483001 	sub	r3, r8, #1, 0
    b39c:	e3530001 	cmp	r3, #1, 0
    b3a0:	8a000009 	bhi	b3cc <lfn_print+0x50>
    b3a4:	e3a04000 	mov	r4, #0, 0
    b3a8:	ea000021 	b	b434 <lfn_print+0xb8>
    b3ac:	e59f3134 	ldr	r3, [pc, #308]	; b4e8 <lfn_print+0x16c>
    b3b0:	e58d3000 	str	r3, [sp]
    b3b4:	e3a0305f 	mov	r3, #95, 0	; 0x5f
    b3b8:	e59f212c 	ldr	r2, [pc, #300]	; b4ec <lfn_print+0x170>
    b3bc:	e59f112c 	ldr	r1, [pc, #300]	; b4f0 <lfn_print+0x174>
    b3c0:	e59f012c 	ldr	r0, [pc, #300]	; b4f4 <lfn_print+0x178>
    b3c4:	eb0007c2 	bl	d2d4 <printk>
    b3c8:	eb0008f1 	bl	d794 <clean_reboot>
    b3cc:	e59f3124 	ldr	r3, [pc, #292]	; b4f8 <lfn_print+0x17c>
    b3d0:	e58d3000 	str	r3, [sp]
    b3d4:	e3a03062 	mov	r3, #98, 0	; 0x62
    b3d8:	e59f210c 	ldr	r2, [pc, #268]	; b4ec <lfn_print+0x170>
    b3dc:	e59f110c 	ldr	r1, [pc, #268]	; b4f0 <lfn_print+0x174>
    b3e0:	e59f0114 	ldr	r0, [pc, #276]	; b4fc <lfn_print+0x180>
    b3e4:	eb0007ba 	bl	d2d4 <printk>
    b3e8:	eb0008e9 	bl	d794 <clean_reboot>
    b3ec:	e59f310c 	ldr	r3, [pc, #268]	; b500 <lfn_print+0x184>
    b3f0:	e58d3000 	str	r3, [sp]
    b3f4:	e3a03064 	mov	r3, #100, 0	; 0x64
    b3f8:	e59f20ec 	ldr	r2, [pc, #236]	; b4ec <lfn_print+0x170>
    b3fc:	e59f10ec 	ldr	r1, [pc, #236]	; b4f0 <lfn_print+0x174>
    b400:	e59f00ec 	ldr	r0, [pc, #236]	; b4f4 <lfn_print+0x178>
    b404:	eb0007b2 	bl	d2d4 <printk>
    b408:	eb0008e1 	bl	d794 <clean_reboot>
    b40c:	e1a01004 	mov	r1, r4
    b410:	e59f00ec 	ldr	r0, [pc, #236]	; b504 <lfn_print+0x188>
    b414:	eb0007ae 	bl	d2d4 <printk>
    b418:	e1a01007 	mov	r1, r7
    b41c:	e1a00005 	mov	r0, r5
    b420:	ebffff6d 	bl	b1dc <lfn_print_ent>
    b424:	e5d5000d 	ldrb	r0, [r5, #13]
    b428:	e1500007 	cmp	r0, r7
    b42c:	1a00000a 	bne	b45c <lfn_print+0xe0>
    b430:	e2844001 	add	r4, r4, #1, 0
    b434:	e1540008 	cmp	r4, r8
    b438:	aa00000f 	bge	b47c <lfn_print+0x100>
    b43c:	e0865284 	add	r5, r6, r4, lsl #5
    b440:	e7d60284 	ldrb	r0, [r6, r4, lsl #5]
    b444:	ebffff4a 	bl	b174 <lfn_is_deleted>
    b448:	e3500000 	cmp	r0, #0, 0
    b44c:	1affffe6 	bne	b3ec <lfn_print+0x70>
    b450:	e3590000 	cmp	r9, #0, 0
    b454:	0afffff2 	beq	b424 <lfn_print+0xa8>
    b458:	eaffffeb 	b	b40c <lfn_print+0x90>
    b45c:	e59f30a4 	ldr	r3, [pc, #164]	; b508 <lfn_print+0x18c>
    b460:	e58d3000 	str	r3, [sp]
    b464:	e3a03069 	mov	r3, #105, 0	; 0x69
    b468:	e59f207c 	ldr	r2, [pc, #124]	; b4ec <lfn_print+0x170>
    b46c:	e59f107c 	ldr	r1, [pc, #124]	; b4f0 <lfn_print+0x174>
    b470:	e59f007c 	ldr	r0, [pc, #124]	; b4f4 <lfn_print+0x178>
    b474:	eb000796 	bl	d2d4 <printk>
    b478:	eb0008c5 	bl	d794 <clean_reboot>
    b47c:	e5d60000 	ldrb	r0, [r6]
    b480:	ebffff33 	bl	b154 <lfn_is_last>
    b484:	e3500000 	cmp	r0, #0, 0
    b488:	0a000006 	beq	b4a8 <lfn_print+0x12c>
    b48c:	e248837e 	sub	r8, r8, #-134217727	; 0xf8000001
    b490:	e7d60288 	ldrb	r0, [r6, r8, lsl #5]
    b494:	ebffff31 	bl	b160 <lfn_is_first>
    b498:	e3500000 	cmp	r0, #0, 0
    b49c:	0a000009 	beq	b4c8 <lfn_print+0x14c>
    b4a0:	e28dd00c 	add	sp, sp, #12, 0
    b4a4:	e8bd83f0 	pop	{r4, r5, r6, r7, r8, r9, pc}
    b4a8:	e59f305c 	ldr	r3, [pc, #92]	; b50c <lfn_print+0x190>
    b4ac:	e58d3000 	str	r3, [sp]
    b4b0:	e3a0306b 	mov	r3, #107, 0	; 0x6b
    b4b4:	e59f2030 	ldr	r2, [pc, #48]	; b4ec <lfn_print+0x170>
    b4b8:	e59f1030 	ldr	r1, [pc, #48]	; b4f0 <lfn_print+0x174>
    b4bc:	e59f0030 	ldr	r0, [pc, #48]	; b4f4 <lfn_print+0x178>
    b4c0:	eb000783 	bl	d2d4 <printk>
    b4c4:	eb0008b2 	bl	d794 <clean_reboot>
    b4c8:	e59f3040 	ldr	r3, [pc, #64]	; b510 <lfn_print+0x194>
    b4cc:	e58d3000 	str	r3, [sp]
    b4d0:	e3a0306c 	mov	r3, #108, 0	; 0x6c
    b4d4:	e59f2010 	ldr	r2, [pc, #16]	; b4ec <lfn_print+0x170>
    b4d8:	e59f1010 	ldr	r1, [pc, #16]	; b4f0 <lfn_print+0x174>
    b4dc:	e59f0010 	ldr	r0, [pc, #16]	; b4f4 <lfn_print+0x178>
    b4e0:	eb00077b 	bl	d2d4 <printk>
    b4e4:	eb0008aa 	bl	d794 <clean_reboot>
    b4e8:	0000f568 	.word	0x0000f568
    b4ec:	0000f770 	.word	0x0000f770
    b4f0:	0000f4a0 	.word	0x0000f4a0
    b4f4:	0000e094 	.word	0x0000e094
    b4f8:	0000f5bc 	.word	0x0000f5bc
    b4fc:	0000f574 	.word	0x0000f574
    b500:	0000f5d0 	.word	0x0000f5d0
    b504:	0000f5f0 	.word	0x0000f5f0
    b508:	0000f5fc 	.word	0x0000f5fc
    b50c:	0000f610 	.word	0x0000f610
    b510:	0000f628 	.word	0x0000f628

0000b514 <fat32_dir_filename>:
    b514:	e92d41f0 	push	{r4, r5, r6, r7, r8, lr}
    b518:	e24dd008 	sub	sp, sp, #8, 0
    b51c:	e1a06000 	mov	r6, r0
    b520:	e1a05001 	mov	r5, r1
    b524:	e1a07002 	mov	r7, r2
    b528:	e1a00001 	mov	r0, r1
    b52c:	ebfffcb9 	bl	a818 <fat32_dirent_free>
    b530:	e2504000 	subs	r4, r0, #0, 0
    b534:	1a000017 	bne	b598 <fat32_dir_filename+0x84>
    b538:	e5d5800b 	ldrb	r8, [r5, #11]
    b53c:	e358000f 	cmp	r8, #15, 0
    b540:	0a00001c 	beq	b5b8 <fat32_dir_filename+0xa4>
    b544:	e3a01010 	mov	r1, #16, 0
    b548:	e1a00008 	mov	r0, r8
    b54c:	ebfffee9 	bl	b0f8 <is_attr>
    b550:	e3500000 	cmp	r0, #0, 0
    b554:	1a000009 	bne	b580 <fat32_dir_filename+0x6c>
    b558:	e3a01020 	mov	r1, #32, 0
    b55c:	e1a00008 	mov	r0, r8
    b560:	ebfffee4 	bl	b0f8 <is_attr>
    b564:	e3500000 	cmp	r0, #0, 0
    b568:	1a000004 	bne	b580 <fat32_dir_filename+0x6c>
    b56c:	e3a01008 	mov	r1, #8, 0
    b570:	e1a00008 	mov	r0, r8
    b574:	ebfffedf 	bl	b0f8 <is_attr>
    b578:	e3500000 	cmp	r0, #0, 0
    b57c:	0a00003c 	beq	b674 <fat32_dir_filename+0x160>
    b580:	e5d5300c 	ldrb	r3, [r5, #12]
    b584:	e3530018 	cmp	r3, #24, 0
    b588:	0a000054 	beq	b6e0 <fat32_dir_filename+0x1cc>
    b58c:	e1a0c004 	mov	ip, r4
    b590:	e1a01004 	mov	r1, r4
    b594:	ea000041 	b	b6a0 <fat32_dir_filename+0x18c>
    b598:	e59f31b4 	ldr	r3, [pc, #436]	; b754 <fat32_dir_filename+0x240>
    b59c:	e58d3000 	str	r3, [sp]
    b5a0:	e3a03071 	mov	r3, #113, 0	; 0x71
    b5a4:	e59f21ac 	ldr	r2, [pc, #428]	; b758 <fat32_dir_filename+0x244>
    b5a8:	e59f11ac 	ldr	r1, [pc, #428]	; b75c <fat32_dir_filename+0x248>
    b5ac:	e59f01ac 	ldr	r0, [pc, #428]	; b760 <fat32_dir_filename+0x24c>
    b5b0:	eb000747 	bl	d2d4 <printk>
    b5b4:	eb000876 	bl	d794 <clean_reboot>
    b5b8:	e0472005 	sub	r2, r7, r5
    b5bc:	e1a032c2 	asr	r3, r2, #5
    b5c0:	e3a04001 	mov	r4, #1, 0
    b5c4:	e1540003 	cmp	r4, r3
    b5c8:	aa000004 	bge	b5e0 <fat32_dir_filename+0xcc>
    b5cc:	e0852284 	add	r2, r5, r4, lsl #5
    b5d0:	e5d2200b 	ldrb	r2, [r2, #11]
    b5d4:	e352000f 	cmp	r2, #15, 0
    b5d8:	02844001 	addeq	r4, r4, #1, 0
    b5dc:	0afffff8 	beq	b5c4 <fat32_dir_filename+0xb0>
    b5e0:	e1540003 	cmp	r4, r3
    b5e4:	aa000012 	bge	b634 <fat32_dir_filename+0x120>
    b5e8:	e0857284 	add	r7, r5, r4, lsl #5
    b5ec:	e5d7800b 	ldrb	r8, [r7, #11]
    b5f0:	e3a01010 	mov	r1, #16, 0
    b5f4:	e1a00008 	mov	r0, r8
    b5f8:	ebfffebe 	bl	b0f8 <is_attr>
    b5fc:	e3500000 	cmp	r0, #0, 0
    b600:	1a000004 	bne	b618 <fat32_dir_filename+0x104>
    b604:	e3a01020 	mov	r1, #32, 0
    b608:	e1a00008 	mov	r0, r8
    b60c:	ebfffeb9 	bl	b0f8 <is_attr>
    b610:	e3500000 	cmp	r0, #0, 0
    b614:	0a00000e 	beq	b654 <fat32_dir_filename+0x140>
    b618:	e1a01004 	mov	r1, r4
    b61c:	e1a00005 	mov	r0, r5
    b620:	ebffff2b 	bl	b2d4 <lfn_get_name>
    b624:	e1a01000 	mov	r1, r0
    b628:	e1a00006 	mov	r0, r6
    b62c:	eb000849 	bl	d758 <strcpy>
    b630:	ea000044 	b	b748 <fat32_dir_filename+0x234>
    b634:	e59f3128 	ldr	r3, [pc, #296]	; b764 <fat32_dir_filename+0x250>
    b638:	e58d3000 	str	r3, [sp]
    b63c:	e3a0307a 	mov	r3, #122, 0	; 0x7a
    b640:	e59f2110 	ldr	r2, [pc, #272]	; b758 <fat32_dir_filename+0x244>
    b644:	e59f1110 	ldr	r1, [pc, #272]	; b75c <fat32_dir_filename+0x248>
    b648:	e59f0110 	ldr	r0, [pc, #272]	; b760 <fat32_dir_filename+0x24c>
    b64c:	eb000720 	bl	d2d4 <printk>
    b650:	eb00084f 	bl	d794 <clean_reboot>
    b654:	e59f310c 	ldr	r3, [pc, #268]	; b768 <fat32_dir_filename+0x254>
    b658:	e58d3000 	str	r3, [sp]
    b65c:	e3a0307b 	mov	r3, #123, 0	; 0x7b
    b660:	e59f20f0 	ldr	r2, [pc, #240]	; b758 <fat32_dir_filename+0x244>
    b664:	e59f10f0 	ldr	r1, [pc, #240]	; b75c <fat32_dir_filename+0x248>
    b668:	e59f00f0 	ldr	r0, [pc, #240]	; b760 <fat32_dir_filename+0x24c>
    b66c:	eb000718 	bl	d2d4 <printk>
    b670:	eb000847 	bl	d794 <clean_reboot>
    b674:	e59f30f0 	ldr	r3, [pc, #240]	; b76c <fat32_dir_filename+0x258>
    b678:	e58d3000 	str	r3, [sp]
    b67c:	e3a0307f 	mov	r3, #127, 0	; 0x7f
    b680:	e59f20d0 	ldr	r2, [pc, #208]	; b758 <fat32_dir_filename+0x244>
    b684:	e59f10d0 	ldr	r1, [pc, #208]	; b75c <fat32_dir_filename+0x248>
    b688:	e59f00d0 	ldr	r0, [pc, #208]	; b760 <fat32_dir_filename+0x24c>
    b68c:	eb000710 	bl	d2d4 <printk>
    b690:	eb00083f 	bl	d794 <clean_reboot>
    b694:	e7c63001 	strb	r3, [r6, r1]
    b698:	e2811001 	add	r1, r1, #1, 0
    b69c:	e2844001 	add	r4, r4, #1, 0
    b6a0:	e3540007 	cmp	r4, #7, 0
    b6a4:	ca00000f 	bgt	b6e8 <fat32_dir_filename+0x1d4>
    b6a8:	e7d53004 	ldrb	r3, [r5, r4]
    b6ac:	e3530020 	cmp	r3, #32, 0
    b6b0:	0afffff9 	beq	b69c <fat32_dir_filename+0x188>
    b6b4:	e3530040 	cmp	r3, #64, 0	; 0x40
    b6b8:	93a02000 	movls	r2, #0, 0
    b6bc:	83a02001 	movhi	r2, #1, 0
    b6c0:	e35c0000 	cmp	ip, #0, 0
    b6c4:	03a02000 	moveq	r2, #0, 0
    b6c8:	e3520000 	cmp	r2, #0, 0
    b6cc:	0afffff0 	beq	b694 <fat32_dir_filename+0x180>
    b6d0:	e353005a 	cmp	r3, #90, 0	; 0x5a
    b6d4:	92833020 	addls	r3, r3, #32, 0
    b6d8:	96ef3073 	uxtbls	r3, r3
    b6dc:	eaffffec 	b	b694 <fat32_dir_filename+0x180>
    b6e0:	e3a0c001 	mov	ip, #1, 0
    b6e4:	eaffffa9 	b	b590 <fat32_dir_filename+0x7c>
    b6e8:	e2810001 	add	r0, r1, #1, 0
    b6ec:	e3a0302e 	mov	r3, #46, 0	; 0x2e
    b6f0:	e7c63001 	strb	r3, [r6, r1]
    b6f4:	ea000002 	b	b704 <fat32_dir_filename+0x1f0>
    b6f8:	e7c63000 	strb	r3, [r6, r0]
    b6fc:	e2844001 	add	r4, r4, #1, 0
    b700:	e2800001 	add	r0, r0, #1, 0
    b704:	e354000a 	cmp	r4, #10, 0
    b708:	ca00000b 	bgt	b73c <fat32_dir_filename+0x228>
    b70c:	e7d53004 	ldrb	r3, [r5, r4]
    b710:	e3530040 	cmp	r3, #64, 0	; 0x40
    b714:	93a02000 	movls	r2, #0, 0
    b718:	83a02001 	movhi	r2, #1, 0
    b71c:	e35c0000 	cmp	ip, #0, 0
    b720:	03a02000 	moveq	r2, #0, 0
    b724:	e3520000 	cmp	r2, #0, 0
    b728:	0afffff2 	beq	b6f8 <fat32_dir_filename+0x1e4>
    b72c:	e353005a 	cmp	r3, #90, 0	; 0x5a
    b730:	92833020 	addls	r3, r3, #32, 0
    b734:	96ef3073 	uxtbls	r3, r3
    b738:	eaffffee 	b	b6f8 <fat32_dir_filename+0x1e4>
    b73c:	e3a03000 	mov	r3, #0, 0
    b740:	e7c63000 	strb	r3, [r6, r0]
    b744:	e1a07005 	mov	r7, r5
    b748:	e1a00007 	mov	r0, r7
    b74c:	e28dd008 	add	sp, sp, #8, 0
    b750:	e8bd81f0 	pop	{r4, r5, r6, r7, r8, pc}
    b754:	0000f648 	.word	0x0000f648
    b758:	0000f77c 	.word	0x0000f77c
    b75c:	0000f4a0 	.word	0x0000f4a0
    b760:	0000e094 	.word	0x0000e094
    b764:	0000f660 	.word	0x0000f660
    b768:	0000f668 	.word	0x0000f668
    b76c:	0000f6b0 	.word	0x0000f6b0

0000b770 <fat32_lfn_print>:
    b770:	e92d40f0 	push	{r4, r5, r6, r7, lr}
    b774:	e24dd00c 	sub	sp, sp, #12, 0
    b778:	e1a05001 	mov	r5, r1
    b77c:	e5d1300b 	ldrb	r3, [r1, #11]
    b780:	e353000f 	cmp	r3, #15, 0
    b784:	0a000004 	beq	b79c <fat32_lfn_print+0x2c>
    b788:	ebfffdb8 	bl	ae70 <fat32_dirent_print>
    b78c:	e3a04001 	mov	r4, #1, 0
    b790:	e1a00004 	mov	r0, r4
    b794:	e28dd00c 	add	sp, sp, #12, 0
    b798:	e8bd80f0 	pop	{r4, r5, r6, r7, pc}
    b79c:	e1a06002 	mov	r6, r2
    b7a0:	e1a01000 	mov	r1, r0
    b7a4:	e59f00e4 	ldr	r0, [pc, #228]	; b890 <fat32_lfn_print+0x120>
    b7a8:	eb0006c9 	bl	d2d4 <printk>
    b7ac:	e3a04000 	mov	r4, #0, 0
    b7b0:	e1540006 	cmp	r4, r6
    b7b4:	aa000004 	bge	b7cc <fat32_lfn_print+0x5c>
    b7b8:	e0853284 	add	r3, r5, r4, lsl #5
    b7bc:	e5d3300b 	ldrb	r3, [r3, #11]
    b7c0:	e353000f 	cmp	r3, #15, 0
    b7c4:	02844001 	addeq	r4, r4, #1, 0
    b7c8:	0afffff8 	beq	b7b0 <fat32_lfn_print+0x40>
    b7cc:	e1540006 	cmp	r4, r6
    b7d0:	aa00001e 	bge	b850 <fat32_lfn_print+0xe0>
    b7d4:	e0856284 	add	r6, r5, r4, lsl #5
    b7d8:	e5d6700b 	ldrb	r7, [r6, #11]
    b7dc:	e3a01010 	mov	r1, #16, 0
    b7e0:	e1a00007 	mov	r0, r7
    b7e4:	ebfffe43 	bl	b0f8 <is_attr>
    b7e8:	e3500000 	cmp	r0, #0, 0
    b7ec:	1a000004 	bne	b804 <fat32_lfn_print+0x94>
    b7f0:	e3a01020 	mov	r1, #32, 0
    b7f4:	e1a00007 	mov	r0, r7
    b7f8:	ebfffe3e 	bl	b0f8 <is_attr>
    b7fc:	e3500000 	cmp	r0, #0, 0
    b800:	0a00001a 	beq	b870 <fat32_lfn_print+0x100>
    b804:	e59f0088 	ldr	r0, [pc, #136]	; b894 <fat32_lfn_print+0x124>
    b808:	eb0006b1 	bl	d2d4 <printk>
    b80c:	e1a00006 	mov	r0, r6
    b810:	ebfffe42 	bl	b120 <lfn_checksum>
    b814:	e1a02000 	mov	r2, r0
    b818:	e3a03000 	mov	r3, #0, 0
    b81c:	e1a01004 	mov	r1, r4
    b820:	e1a00005 	mov	r0, r5
    b824:	ebfffed4 	bl	b37c <lfn_print>
    b828:	e1a01004 	mov	r1, r4
    b82c:	e1a00005 	mov	r0, r5
    b830:	ebfffea7 	bl	b2d4 <lfn_get_name>
    b834:	e1a01000 	mov	r1, r0
    b838:	e59f0058 	ldr	r0, [pc, #88]	; b898 <fat32_lfn_print+0x128>
    b83c:	eb0006a4 	bl	d2d4 <printk>
    b840:	e2844001 	add	r4, r4, #1, 0
    b844:	e1a00006 	mov	r0, r6
    b848:	ebfffcf5 	bl	ac24 <fat32_dirent_print_helper>
    b84c:	eaffffcf 	b	b790 <fat32_lfn_print+0x20>
    b850:	e59f3044 	ldr	r3, [pc, #68]	; b89c <fat32_lfn_print+0x12c>
    b854:	e58d3000 	str	r3, [sp]
    b858:	e3a030ac 	mov	r3, #172, 0	; 0xac
    b85c:	e59f203c 	ldr	r2, [pc, #60]	; b8a0 <fat32_lfn_print+0x130>
    b860:	e59f103c 	ldr	r1, [pc, #60]	; b8a4 <fat32_lfn_print+0x134>
    b864:	e59f003c 	ldr	r0, [pc, #60]	; b8a8 <fat32_lfn_print+0x138>
    b868:	eb000699 	bl	d2d4 <printk>
    b86c:	eb0007c8 	bl	d794 <clean_reboot>
    b870:	e59f3034 	ldr	r3, [pc, #52]	; b8ac <fat32_lfn_print+0x13c>
    b874:	e58d3000 	str	r3, [sp]
    b878:	e3a030ad 	mov	r3, #173, 0	; 0xad
    b87c:	e59f201c 	ldr	r2, [pc, #28]	; b8a0 <fat32_lfn_print+0x130>
    b880:	e59f101c 	ldr	r1, [pc, #28]	; b8a4 <fat32_lfn_print+0x134>
    b884:	e59f001c 	ldr	r0, [pc, #28]	; b8a8 <fat32_lfn_print+0x138>
    b888:	eb000691 	bl	d2d4 <printk>
    b88c:	eb0007c0 	bl	d794 <clean_reboot>
    b890:	0000f3f4 	.word	0x0000f3f4
    b894:	0000e5b8 	.word	0x0000e5b8
    b898:	0000f714 	.word	0x0000f714
    b89c:	0000f708 	.word	0x0000f708
    b8a0:	0000f790 	.word	0x0000f790
    b8a4:	0000f4a0 	.word	0x0000f4a0
    b8a8:	0000e094 	.word	0x0000e094
    b8ac:	0000f668 	.word	0x0000f668

0000b8b0 <codepoint_len>:
    b8b0:	e1a0c000 	mov	ip, r0
    b8b4:	e59f2040 	ldr	r2, [pc, #64]	; b8fc <codepoint_len+0x4c>
    b8b8:	e3a00000 	mov	r0, #0, 0
    b8bc:	ea000001 	b	b8c8 <codepoint_len+0x18>
    b8c0:	e2800001 	add	r0, r0, #1, 0
    b8c4:	e2822004 	add	r2, r2, #4, 0
    b8c8:	e5923000 	ldr	r3, [r2]
    b8cc:	e3530000 	cmp	r3, #0, 0
    b8d0:	0a000005 	beq	b8ec <codepoint_len+0x3c>
    b8d4:	e5931004 	ldr	r1, [r3, #4]
    b8d8:	e151000c 	cmp	r1, ip
    b8dc:	8afffff7 	bhi	b8c0 <codepoint_len+0x10>
    b8e0:	e5933008 	ldr	r3, [r3, #8]
    b8e4:	e153000c 	cmp	r3, ip
    b8e8:	3afffff4 	bcc	b8c0 <codepoint_len+0x10>
    b8ec:	e3500004 	cmp	r0, #4, 0
    b8f0:	d12fff1e 	bxle	lr
    b8f4:	e3e00000 	mvn	r0, #0, 0
    b8f8:	e12fff1e 	bx	lr
    b8fc:	00010840 	.word	0x00010840

0000b900 <utf8_len>:
    b900:	e1a0c000 	mov	ip, r0
    b904:	e59f1038 	ldr	r1, [pc, #56]	; b944 <utf8_len+0x44>
    b908:	e3a00000 	mov	r0, #0, 0
    b90c:	e5913000 	ldr	r3, [r1]
    b910:	e3530000 	cmp	r3, #0, 0
    b914:	0a000006 	beq	b934 <utf8_len+0x34>
    b918:	e5d32000 	ldrb	r2, [r3]
    b91c:	e1cc2002 	bic	r2, ip, r2
    b920:	e5d33001 	ldrb	r3, [r3, #1]
    b924:	e1520003 	cmp	r2, r3
    b928:	12800001 	addne	r0, r0, #1, 0
    b92c:	12811004 	addne	r1, r1, #4, 0
    b930:	1afffff5 	bne	b90c <utf8_len+0xc>
    b934:	e3500004 	cmp	r0, #4, 0
    b938:	d12fff1e 	bxle	lr
    b93c:	e3e00000 	mvn	r0, #0, 0
    b940:	e12fff1e 	bx	lr
    b944:	00010840 	.word	0x00010840

0000b948 <to_utf8>:
    b948:	e92d4070 	push	{r4, r5, r6, lr}
    b94c:	e1a04000 	mov	r4, r0
    b950:	ebffffd6 	bl	b8b0 <codepoint_len>
    b954:	e250c000 	subs	ip, r0, #0, 0
    b958:	ba00001c 	blt	b9d0 <to_utf8+0x88>
    b95c:	e59f3074 	ldr	r3, [pc, #116]	; b9d8 <to_utf8+0x90>
    b960:	e5930000 	ldr	r0, [r3]
    b964:	e590500c 	ldr	r5, [r0, #12]
    b968:	e24c1001 	sub	r1, ip, #1, 0
    b96c:	e0010591 	mul	r1, r1, r5
    b970:	e793210c 	ldr	r2, [r3, ip, lsl #2]
    b974:	e5d23000 	ldrb	r3, [r2]
    b978:	e0033134 	and	r3, r3, r4, lsr r1
    b97c:	e5d22001 	ldrb	r2, [r2, #1]
    b980:	e1833002 	orr	r3, r3, r2
    b984:	e59f2050 	ldr	r2, [pc, #80]	; b9dc <to_utf8+0x94>
    b988:	e5c23000 	strb	r3, [r2]
    b98c:	e0411005 	sub	r1, r1, r5
    b990:	e3a02001 	mov	r2, #1, 0
    b994:	ea000007 	b	b9b8 <to_utf8+0x70>
    b998:	e5d03000 	ldrb	r3, [r0]
    b99c:	e0033134 	and	r3, r3, r4, lsr r1
    b9a0:	e5d0e001 	ldrb	lr, [r0, #1]
    b9a4:	e183300e 	orr	r3, r3, lr
    b9a8:	e59fe02c 	ldr	lr, [pc, #44]	; b9dc <to_utf8+0x94>
    b9ac:	e7ce3002 	strb	r3, [lr, r2]
    b9b0:	e0411005 	sub	r1, r1, r5
    b9b4:	e2822001 	add	r2, r2, #1, 0
    b9b8:	e152000c 	cmp	r2, ip
    b9bc:	bafffff5 	blt	b998 <to_utf8+0x50>
    b9c0:	e59f0014 	ldr	r0, [pc, #20]	; b9dc <to_utf8+0x94>
    b9c4:	e3a03000 	mov	r3, #0, 0
    b9c8:	e7c0300c 	strb	r3, [r0, ip]
    b9cc:	e8bd8070 	pop	{r4, r5, r6, pc}
    b9d0:	e3a00000 	mov	r0, #0, 0
    b9d4:	e8bd8070 	pop	{r4, r5, r6, pc}
    b9d8:	00010840 	.word	0x00010840
    b9dc:	00010b68 	.word	0x00010b68

0000b9e0 <to_cp>:
    b9e0:	e92d41f0 	push	{r4, r5, r6, r7, r8, lr}
    b9e4:	e1a05000 	mov	r5, r0
    b9e8:	e5d04000 	ldrb	r4, [r0]
    b9ec:	e1a00004 	mov	r0, r4
    b9f0:	ebffffc2 	bl	b900 <utf8_len>
    b9f4:	e2506000 	subs	r6, r0, #0, 0
    b9f8:	ba000013 	blt	ba4c <to_cp+0x6c>
    b9fc:	e59f3050 	ldr	r3, [pc, #80]	; ba54 <to_cp+0x74>
    ba00:	e5938000 	ldr	r8, [r3]
    ba04:	e598700c 	ldr	r7, [r8, #12]
    ba08:	e2462001 	sub	r2, r6, #1, 0
    ba0c:	e0020792 	mul	r2, r2, r7
    ba10:	e285c001 	add	ip, r5, #1, 0
    ba14:	e7933106 	ldr	r3, [r3, r6, lsl #2]
    ba18:	e5d30000 	ldrb	r0, [r3]
    ba1c:	e0000004 	and	r0, r0, r4
    ba20:	e1a00210 	lsl	r0, r0, r2
    ba24:	e3a01001 	mov	r1, #1, 0
    ba28:	e1510006 	cmp	r1, r6
    ba2c:	a8bd81f0 	popge	{r4, r5, r6, r7, r8, pc}
    ba30:	e0422007 	sub	r2, r2, r7
    ba34:	e4dc3001 	ldrb	r3, [ip], #1
    ba38:	e5d8e000 	ldrb	lr, [r8]
    ba3c:	e003300e 	and	r3, r3, lr
    ba40:	e1800213 	orr	r0, r0, r3, lsl r2
    ba44:	e2811001 	add	r1, r1, #1, 0
    ba48:	eafffff6 	b	ba28 <to_cp+0x48>
    ba4c:	e3a00000 	mov	r0, #0, 0
    ba50:	e8bd81f0 	pop	{r4, r5, r6, r7, r8, pc}
    ba54:	00010840 	.word	0x00010840

0000ba58 <test_main>:
    ba58:	e92d4070 	push	{r4, r5, r6, lr}
    ba5c:	e24dd028 	sub	sp, sp, #40, 0	; 0x28
    ba60:	e28dc008 	add	ip, sp, #8, 0
    ba64:	e59fe0b0 	ldr	lr, [pc, #176]	; bb1c <test_main+0xc4>
    ba68:	e8be000f 	ldm	lr!, {r0, r1, r2, r3}
    ba6c:	e8ac000f 	stmia	ip!, {r0, r1, r2, r3}
    ba70:	e89e000f 	ldm	lr, {r0, r1, r2, r3}
    ba74:	e88c000f 	stm	ip, {r0, r1, r2, r3}
    ba78:	e59f00a0 	ldr	r0, [pc, #160]	; bb20 <test_main+0xc8>
    ba7c:	eb000614 	bl	d2d4 <printk>
    ba80:	e59f009c 	ldr	r0, [pc, #156]	; bb24 <test_main+0xcc>
    ba84:	eb000612 	bl	d2d4 <printk>
    ba88:	e28d6008 	add	r6, sp, #8, 0
    ba8c:	ea000012 	b	badc <test_main+0x84>
    ba90:	e59f3090 	ldr	r3, [pc, #144]	; bb28 <test_main+0xd0>
    ba94:	e58d3000 	str	r3, [sp]
    ba98:	e3a0306c 	mov	r3, #108, 0	; 0x6c
    ba9c:	e59f2088 	ldr	r2, [pc, #136]	; bb2c <test_main+0xd4>
    baa0:	e59f1088 	ldr	r1, [pc, #136]	; bb30 <test_main+0xd8>
    baa4:	e59f0088 	ldr	r0, [pc, #136]	; bb34 <test_main+0xdc>
    baa8:	eb000609 	bl	d2d4 <printk>
    baac:	eb000738 	bl	d794 <clean_reboot>
    bab0:	e59f0080 	ldr	r0, [pc, #128]	; bb38 <test_main+0xe0>
    bab4:	eb000606 	bl	d2d4 <printk>
    bab8:	e2844001 	add	r4, r4, #1, 0
    babc:	e7d51004 	ldrb	r1, [r5, r4]
    bac0:	e3510000 	cmp	r1, #0, 0
    bac4:	0a000001 	beq	bad0 <test_main+0x78>
    bac8:	e3540003 	cmp	r4, #3, 0
    bacc:	dafffff7 	ble	bab0 <test_main+0x58>
    bad0:	e59f0064 	ldr	r0, [pc, #100]	; bb3c <test_main+0xe4>
    bad4:	eb0005fe 	bl	d2d4 <printk>
    bad8:	e2866004 	add	r6, r6, #4, 0
    badc:	e5960000 	ldr	r0, [r6]
    bae0:	e3500000 	cmp	r0, #0, 0
    bae4:	0a00000a 	beq	bb14 <test_main+0xbc>
    bae8:	ebffff96 	bl	b948 <to_utf8>
    baec:	e2505000 	subs	r5, r0, #0, 0
    baf0:	0affffe6 	beq	ba90 <test_main+0x38>
    baf4:	e1a00005 	mov	r0, r5
    baf8:	ebffffb8 	bl	b9e0 <to_cp>
    bafc:	e1a02000 	mov	r2, r0
    bb00:	e1a01005 	mov	r1, r5
    bb04:	e59f0034 	ldr	r0, [pc, #52]	; bb40 <test_main+0xe8>
    bb08:	eb0005f1 	bl	d2d4 <printk>
    bb0c:	e3a04000 	mov	r4, #0, 0
    bb10:	eaffffe9 	b	babc <test_main+0x64>
    bb14:	e28dd028 	add	sp, sp, #40, 0	; 0x28
    bb18:	e8bd8070 	pop	{r4, r5, r6, pc}
    bb1c:	0000f834 	.word	0x0000f834
    bb20:	0000f7a0 	.word	0x0000f7a0
    bb24:	0000f7cc 	.word	0x0000f7cc
    bb28:	0000f818 	.word	0x0000f818
    bb2c:	0000f854 	.word	0x0000f854
    bb30:	0000f7f8 	.word	0x0000f7f8
    bb34:	0000e094 	.word	0x0000e094
    bb38:	0000f370 	.word	0x0000f370
    bb3c:	0000e5b8 	.word	0x0000e5b8
    bb40:	0000f820 	.word	0x0000f820

0000bb44 <get_clock_divider>:
    bb44:	e59f30ac 	ldr	r3, [pc, #172]	; bbf8 <get_clock_divider+0xb4>
    bb48:	e1500003 	cmp	r0, r3
    bb4c:	9a000007 	bls	bb70 <get_clock_divider+0x2c>
    bb50:	e59f20a4 	ldr	r2, [pc, #164]	; bbfc <get_clock_divider+0xb8>
    bb54:	e0823092 	umull	r3, r2, r2, r0
    bb58:	e1a02c22 	lsr	r2, r2, #24
    bb5c:	e59f309c 	ldr	r3, [pc, #156]	; bc00 <get_clock_divider+0xbc>
    bb60:	e0030293 	mul	r3, r3, r2
    bb64:	e1500003 	cmp	r0, r3
    bb68:	13a02000 	movne	r2, #0, 0
    bb6c:	ea000000 	b	bb74 <get_clock_divider+0x30>
    bb70:	e3a02001 	mov	r2, #1, 0
    bb74:	e3a0001f 	mov	r0, #31, 0
    bb78:	e3500000 	cmp	r0, #0, 0
    bb7c:	ba000007 	blt	bba0 <get_clock_divider+0x5c>
    bb80:	e3a03001 	mov	r3, #1, 0
    bb84:	e1a03013 	lsl	r3, r3, r0
    bb88:	e1120003 	tst	r2, r3
    bb8c:	02400001 	subeq	r0, r0, #1, 0
    bb90:	0afffff8 	beq	bb78 <get_clock_divider+0x34>
    bb94:	e1d23003 	bics	r3, r2, r3
    bb98:	12800001 	addne	r0, r0, #1, 0
    bb9c:	ea000000 	b	bba4 <get_clock_divider+0x60>
    bba0:	e3e00000 	mvn	r0, #0, 0
    bba4:	e3700001 	cmn	r0, #1, 0
    bba8:	0a000003 	beq	bbbc <get_clock_divider+0x78>
    bbac:	e350001f 	cmp	r0, #31, 0
    bbb0:	da000002 	ble	bbc0 <get_clock_divider+0x7c>
    bbb4:	e3a0001f 	mov	r0, #31, 0
    bbb8:	ea000002 	b	bbc8 <get_clock_divider+0x84>
    bbbc:	e3a0001f 	mov	r0, #31, 0
    bbc0:	e3500000 	cmp	r0, #0, 0
    bbc4:	0a000002 	beq	bbd4 <get_clock_divider+0x90>
    bbc8:	e2400001 	sub	r0, r0, #1, 0
    bbcc:	e3a03001 	mov	r3, #1, 0
    bbd0:	e1a00013 	lsl	r0, r3, r0
    bbd4:	e3500b01 	cmp	r0, #1024	; 0x400
    bbd8:	a59f0024 	ldrge	r0, [pc, #36]	; bc04 <get_clock_divider+0xc0>
    bbdc:	e1a03440 	asr	r3, r0, #8
    bbe0:	e1a00400 	lsl	r0, r0, #8
    bbe4:	e6ff0070 	uxth	r0, r0
    bbe8:	e1a03303 	lsl	r3, r3, #6
    bbec:	e6ef3073 	uxtb	r3, r3
    bbf0:	e1800003 	orr	r0, r0, r3
    bbf4:	e12fff1e 	bx	lr
    bbf8:	02faf07f 	.word	0x02faf07f
    bbfc:	55e63b89 	.word	0x55e63b89
    bc00:	02faf080 	.word	0x02faf080
    bc04:	000003ff 	.word	0x000003ff

0000bc08 <sd_error_mask>:
    bc08:	e2800010 	add	r0, r0, #16, 0
    bc0c:	e3a03001 	mov	r3, #1, 0
    bc10:	e1a00013 	lsl	r0, r3, r0
    bc14:	e12fff1e 	bx	lr

0000bc18 <set_last_error>:
    bc18:	e1a03820 	lsr	r3, r0, #16
    bc1c:	e1a03803 	lsl	r3, r3, #16
    bc20:	e59f2008 	ldr	r2, [pc, #8]	; bc30 <set_last_error+0x18>
    bc24:	e5823040 	str	r3, [r2, #64]	; 0x40
    bc28:	e5820044 	str	r0, [r2, #68]	; 0x44
    bc2c:	e12fff1e 	bx	lr
    bc30:	00010b80 	.word	0x00010b80

0000bc34 <reset_command>:
    bc34:	e92d4010 	push	{r4, lr}
    bc38:	e59f2058 	ldr	r2, [pc, #88]	; bc98 <reset_command+0x64>
    bc3c:	e592302c 	ldr	r3, [r2, #44]	; 0x2c
    bc40:	e3833402 	orr	r3, r3, #33554432	; 0x2000000
    bc44:	e582302c 	str	r3, [r2, #44]	; 0x2c
    bc48:	e3a04000 	mov	r4, #0, 0
    bc4c:	ea000002 	b	bc5c <reset_command+0x28>
    bc50:	e3a00001 	mov	r0, #1, 0
    bc54:	eb000721 	bl	d8e0 <delay_ms>
    bc58:	e2844001 	add	r4, r4, #1, 0
    bc5c:	e59f3038 	ldr	r3, [pc, #56]	; bc9c <reset_command+0x68>
    bc60:	e1540003 	cmp	r4, r3
    bc64:	ca000005 	bgt	bc80 <reset_command+0x4c>
    bc68:	e59f3028 	ldr	r3, [pc, #40]	; bc98 <reset_command+0x64>
    bc6c:	e593302c 	ldr	r3, [r3, #44]	; 0x2c
    bc70:	e3130402 	tst	r3, #33554432	; 0x2000000
    bc74:	1afffff5 	bne	bc50 <reset_command+0x1c>
    bc78:	e3a00001 	mov	r0, #1, 0
    bc7c:	e8bd8010 	pop	{r4, pc}
    bc80:	e59f3010 	ldr	r3, [pc, #16]	; bc98 <reset_command+0x64>
    bc84:	e593102c 	ldr	r1, [r3, #44]	; 0x2c
    bc88:	e59f0010 	ldr	r0, [pc, #16]	; bca0 <reset_command+0x6c>
    bc8c:	eb000590 	bl	d2d4 <printk>
    bc90:	e3a00000 	mov	r0, #0, 0
    bc94:	e8bd8010 	pop	{r4, pc}
    bc98:	20300000 	.word	0x20300000
    bc9c:	0000270f 	.word	0x0000270f
    bca0:	0000f860 	.word	0x0000f860

0000bca4 <wait_reg_mask>:
    bca4:	e92d41f0 	push	{r4, r5, r6, r7, r8, lr}
    bca8:	e1a07000 	mov	r7, r0
    bcac:	e1a06001 	mov	r6, r1
    bcb0:	e1a08002 	mov	r8, r2
    bcb4:	e1a05003 	mov	r5, r3
    bcb8:	e3a04000 	mov	r4, #0, 0
    bcbc:	ea000005 	b	bcd8 <wait_reg_mask+0x34>
    bcc0:	e1a00008 	mov	r0, r8
    bcc4:	e3500000 	cmp	r0, #0, 0
    bcc8:	18bd81f0 	popne	{r4, r5, r6, r7, r8, pc}
    bccc:	e3a00064 	mov	r0, #100, 0	; 0x64
    bcd0:	eb0006f9 	bl	d8bc <delay_us>
    bcd4:	e2844001 	add	r4, r4, #1, 0
    bcd8:	e0853105 	add	r3, r5, r5, lsl #2
    bcdc:	e1540083 	cmp	r4, r3, lsl #1
    bce0:	8a000004 	bhi	bcf8 <wait_reg_mask+0x54>
    bce4:	e5973000 	ldr	r3, [r7]
    bce8:	e1130006 	tst	r3, r6
    bcec:	1afffff3 	bne	bcc0 <wait_reg_mask+0x1c>
    bcf0:	e2280001 	eor	r0, r8, #1, 0
    bcf4:	eafffff2 	b	bcc4 <wait_reg_mask+0x20>
    bcf8:	e3a00000 	mov	r0, #0, 0
    bcfc:	e8bd81f0 	pop	{r4, r5, r6, r7, r8, pc}

0000bd00 <do_data_transfer>:
    bd00:	e92d41f0 	push	{r4, r5, r6, r7, r8, lr}
    bd04:	e24dd008 	sub	sp, sp, #8, 0
    bd08:	e58d0004 	str	r0, [sp, #4]
    bd0c:	e3100010 	tst	r0, #16, 0
    bd10:	0a000005 	beq	bd2c <do_data_transfer+0x2c>
    bd14:	e3a07000 	mov	r7, #0, 0
    bd18:	e3a05020 	mov	r5, #32, 0
    bd1c:	e59f30c0 	ldr	r3, [pc, #192]	; bde4 <do_data_transfer+0xe4>
    bd20:	e5934038 	ldr	r4, [r3, #56]	; 0x38
    bd24:	e3a06000 	mov	r6, #0, 0
    bd28:	ea00000c 	b	bd60 <do_data_transfer+0x60>
    bd2c:	e3a07001 	mov	r7, #1, 0
    bd30:	e3a05010 	mov	r5, #16, 0
    bd34:	eafffff8 	b	bd1c <do_data_transfer+0x1c>
    bd38:	ebffffb6 	bl	bc18 <set_last_error>
    bd3c:	e3a00000 	mov	r0, #0, 0
    bd40:	ea000025 	b	bddc <do_data_transfer+0xdc>
    bd44:	e4941004 	ldr	r1, [r4], #4
    bd48:	e59f2098 	ldr	r2, [pc, #152]	; bde8 <do_data_transfer+0xe8>
    bd4c:	e5821020 	str	r1, [r2, #32]
    bd50:	e2433004 	sub	r3, r3, #4, 0
    bd54:	e3530000 	cmp	r3, #0, 0
    bd58:	1afffff9 	bne	bd44 <do_data_transfer+0x44>
    bd5c:	e2866001 	add	r6, r6, #1, 0
    bd60:	e59f307c 	ldr	r3, [pc, #124]	; bde4 <do_data_transfer+0xe4>
    bd64:	e5933004 	ldr	r3, [r3, #4]
    bd68:	e1530006 	cmp	r3, r6
    bd6c:	9a000019 	bls	bdd8 <do_data_transfer+0xd8>
    bd70:	e3858902 	orr	r8, r5, #32768	; 0x8000
    bd74:	e3a03e7d 	mov	r3, #2000	; 0x7d0
    bd78:	e3a02001 	mov	r2, #1, 0
    bd7c:	e1a01008 	mov	r1, r8
    bd80:	e59f0064 	ldr	r0, [pc, #100]	; bdec <do_data_transfer+0xec>
    bd84:	ebffffc6 	bl	bca4 <wait_reg_mask>
    bd88:	e59f3058 	ldr	r3, [pc, #88]	; bde8 <do_data_transfer+0xe8>
    bd8c:	e5930030 	ldr	r0, [r3, #48]	; 0x30
    bd90:	e5838030 	str	r8, [r3, #48]	; 0x30
    bd94:	e1e03805 	mvn	r3, r5, lsl #16
    bd98:	e1e03823 	mvn	r3, r3, lsr #16
    bd9c:	e0033000 	and	r3, r3, r0
    bda0:	e1530005 	cmp	r3, r5
    bda4:	1affffe3 	bne	bd38 <do_data_transfer+0x38>
    bda8:	e59f3034 	ldr	r3, [pc, #52]	; bde4 <do_data_transfer+0xe4>
    bdac:	e5933010 	ldr	r3, [r3, #16]
    bdb0:	e3570000 	cmp	r7, #0, 0
    bdb4:	1affffe6 	bne	bd54 <do_data_transfer+0x54>
    bdb8:	ea000003 	b	bdcc <do_data_transfer+0xcc>
    bdbc:	e59f2024 	ldr	r2, [pc, #36]	; bde8 <do_data_transfer+0xe8>
    bdc0:	e5922020 	ldr	r2, [r2, #32]
    bdc4:	e4842004 	str	r2, [r4], #4
    bdc8:	e2433004 	sub	r3, r3, #4, 0
    bdcc:	e3530000 	cmp	r3, #0, 0
    bdd0:	1afffff9 	bne	bdbc <do_data_transfer+0xbc>
    bdd4:	eaffffe0 	b	bd5c <do_data_transfer+0x5c>
    bdd8:	e3a00001 	mov	r0, #1, 0
    bddc:	e28dd008 	add	sp, sp, #8, 0
    bde0:	e8bd81f0 	pop	{r4, r5, r6, r7, r8, pc}
    bde4:	00010b80 	.word	0x00010b80
    bde8:	20300000 	.word	0x20300000
    bdec:	20300030 	.word	0x20300030

0000bdf0 <emmc_issue_command>:
    bdf0:	e92d4030 	push	{r4, r5, lr}
    bdf4:	e24dd014 	sub	sp, sp, #20, 0
    bdf8:	e58d0004 	str	r0, [sp, #4]
    bdfc:	e1a05002 	mov	r5, r2
    be00:	e59d2004 	ldr	r2, [sp, #4]
    be04:	e59f31c8 	ldr	r3, [pc, #456]	; bfd4 <emmc_issue_command+0x1e4>
    be08:	e583200c 	str	r2, [r3, #12]
    be0c:	e593200c 	ldr	r2, [r3, #12]
    be10:	e58d200c 	str	r2, [sp, #12]
    be14:	e5932004 	ldr	r2, [r3, #4]
    be18:	e3520801 	cmp	r2, #65536	; 0x10000
    be1c:	2a000014 	bcs	be74 <emmc_issue_command+0x84>
    be20:	e59f31ac 	ldr	r3, [pc, #428]	; bfd4 <emmc_issue_command+0x1e4>
    be24:	e5933010 	ldr	r3, [r3, #16]
    be28:	e1832802 	orr	r2, r3, r2, lsl #16
    be2c:	e59f31a4 	ldr	r3, [pc, #420]	; bfd8 <emmc_issue_command+0x1e8>
    be30:	e5832004 	str	r2, [r3, #4]
    be34:	e5831008 	str	r1, [r3, #8]
    be38:	e59d200c 	ldr	r2, [sp, #12]
    be3c:	e583200c 	str	r2, [r3, #12]
    be40:	e3a04000 	mov	r4, #0, 0
    be44:	e1a02004 	mov	r2, r4
    be48:	e1540005 	cmp	r4, r5
    be4c:	2a00000d 	bcs	be88 <emmc_issue_command+0x98>
    be50:	e59f3180 	ldr	r3, [pc, #384]	; bfd8 <emmc_issue_command+0x1e8>
    be54:	e5931030 	ldr	r1, [r3, #48]	; 0x30
    be58:	e59f317c 	ldr	r3, [pc, #380]	; bfdc <emmc_issue_command+0x1ec>
    be5c:	e1110003 	tst	r1, r3
    be60:	1a000008 	bne	be88 <emmc_issue_command+0x98>
    be64:	e3a00001 	mov	r0, #1, 0
    be68:	eb00069c 	bl	d8e0 <delay_ms>
    be6c:	e2844001 	add	r4, r4, #1, 0
    be70:	eafffff3 	b	be44 <emmc_issue_command+0x54>
    be74:	e1a01002 	mov	r1, r2
    be78:	e59f0160 	ldr	r0, [pc, #352]	; bfe0 <emmc_issue_command+0x1f0>
    be7c:	eb000514 	bl	d2d4 <printk>
    be80:	e3a00000 	mov	r0, #0, 0
    be84:	ea000034 	b	bf5c <emmc_issue_command+0x16c>
    be88:	e1520005 	cmp	r2, r5
    be8c:	2a000034 	bcs	bf64 <emmc_issue_command+0x174>
    be90:	e59f3140 	ldr	r3, [pc, #320]	; bfd8 <emmc_issue_command+0x1e8>
    be94:	e5930030 	ldr	r0, [r3, #48]	; 0x30
    be98:	e59f2144 	ldr	r2, [pc, #324]	; bfe4 <emmc_issue_command+0x1f4>
    be9c:	e5832030 	str	r2, [r3, #48]	; 0x30
    bea0:	e3c03cff 	bic	r3, r0, #65280	; 0xff00
    bea4:	e3c330fe 	bic	r3, r3, #254, 0	; 0xfe
    bea8:	e3530001 	cmp	r3, #1, 0
    beac:	1a000032 	bne	bf7c <emmc_issue_command+0x18c>
    beb0:	e5dd3006 	ldrb	r3, [sp, #6]
    beb4:	e2033003 	and	r3, r3, #3, 0
    beb8:	e3530001 	cmp	r3, #1, 0
    bebc:	0a000033 	beq	bf90 <emmc_issue_command+0x1a0>
    bec0:	e6af2073 	sxtb	r2, r3
    bec4:	e3520000 	cmp	r2, #0, 0
    bec8:	0a000006 	beq	bee8 <emmc_issue_command+0xf8>
    becc:	e2833002 	add	r3, r3, #2, 0
    bed0:	e2033003 	and	r3, r3, #3, 0
    bed4:	e3530001 	cmp	r3, #1, 0
    bed8:	959f30f8 	ldrls	r3, [pc, #248]	; bfd8 <emmc_issue_command+0x1e8>
    bedc:	95932010 	ldrls	r2, [r3, #16]
    bee0:	959f30ec 	ldrls	r3, [pc, #236]	; bfd4 <emmc_issue_command+0x1e4>
    bee4:	95832014 	strls	r2, [r3, #20]
    bee8:	e5dd4006 	ldrb	r4, [sp, #6]
    beec:	e2145020 	ands	r5, r4, #32, 0
    bef0:	1a000031 	bne	bfbc <emmc_issue_command+0x1cc>
    bef4:	e2044003 	and	r4, r4, #3, 0
    bef8:	e3540003 	cmp	r4, #3, 0
    befc:	0a000001 	beq	bf08 <emmc_issue_command+0x118>
    bf00:	e3550000 	cmp	r5, #0, 0
    bf04:	0a000011 	beq	bf50 <emmc_issue_command+0x160>
    bf08:	e3a03e7d 	mov	r3, #2000	; 0x7d0
    bf0c:	e3a02001 	mov	r2, #1, 0
    bf10:	e59f10d0 	ldr	r1, [pc, #208]	; bfe8 <emmc_issue_command+0x1f8>
    bf14:	e59f00d0 	ldr	r0, [pc, #208]	; bfec <emmc_issue_command+0x1fc>
    bf18:	ebffff61 	bl	bca4 <wait_reg_mask>
    bf1c:	e59f30b4 	ldr	r3, [pc, #180]	; bfd8 <emmc_issue_command+0x1e8>
    bf20:	e5930030 	ldr	r0, [r3, #48]	; 0x30
    bf24:	e59f20c4 	ldr	r2, [pc, #196]	; bff0 <emmc_issue_command+0x200>
    bf28:	e5832030 	str	r2, [r3, #48]	; 0x30
    bf2c:	e3c03cff 	bic	r3, r0, #65280	; 0xff00
    bf30:	e3c330fd 	bic	r3, r3, #253, 0	; 0xfd
    bf34:	e2822811 	add	r2, r2, #1114112	; 0x110000
    bf38:	e3530002 	cmp	r3, #2, 0
    bf3c:	11530002 	cmpne	r3, r2
    bf40:	1a000020 	bne	bfc8 <emmc_issue_command+0x1d8>
    bf44:	e59f308c 	ldr	r3, [pc, #140]	; bfd8 <emmc_issue_command+0x1e8>
    bf48:	e59f20a0 	ldr	r2, [pc, #160]	; bff0 <emmc_issue_command+0x200>
    bf4c:	e5832030 	str	r2, [r3, #48]	; 0x30
    bf50:	e3a00001 	mov	r0, #1, 0
    bf54:	e59f3078 	ldr	r3, [pc, #120]	; bfd4 <emmc_issue_command+0x1e4>
    bf58:	e5c30000 	strb	r0, [r3]
    bf5c:	e28dd014 	add	sp, sp, #20, 0
    bf60:	e8bd8030 	pop	{r4, r5, pc}
    bf64:	e59f0088 	ldr	r0, [pc, #136]	; bff4 <emmc_issue_command+0x204>
    bf68:	eb0004d9 	bl	d2d4 <printk>
    bf6c:	e3a00000 	mov	r0, #0, 0
    bf70:	e59f305c 	ldr	r3, [pc, #92]	; bfd4 <emmc_issue_command+0x1e4>
    bf74:	e5c30000 	strb	r0, [r3]
    bf78:	eafffff7 	b	bf5c <emmc_issue_command+0x16c>
    bf7c:	ebffff25 	bl	bc18 <set_last_error>
    bf80:	e3a00000 	mov	r0, #0, 0
    bf84:	e59f3048 	ldr	r3, [pc, #72]	; bfd4 <emmc_issue_command+0x1e4>
    bf88:	e5c30000 	strb	r0, [r3]
    bf8c:	eafffff2 	b	bf5c <emmc_issue_command+0x16c>
    bf90:	e59f2040 	ldr	r2, [pc, #64]	; bfd8 <emmc_issue_command+0x1e8>
    bf94:	e5921010 	ldr	r1, [r2, #16]
    bf98:	e59f3034 	ldr	r3, [pc, #52]	; bfd4 <emmc_issue_command+0x1e4>
    bf9c:	e5831014 	str	r1, [r3, #20]
    bfa0:	e5921014 	ldr	r1, [r2, #20]
    bfa4:	e5831018 	str	r1, [r3, #24]
    bfa8:	e5921018 	ldr	r1, [r2, #24]
    bfac:	e583101c 	str	r1, [r3, #28]
    bfb0:	e592201c 	ldr	r2, [r2, #28]
    bfb4:	e5832020 	str	r2, [r3, #32]
    bfb8:	eaffffca 	b	bee8 <emmc_issue_command+0xf8>
    bfbc:	e59d0004 	ldr	r0, [sp, #4]
    bfc0:	ebffff4e 	bl	bd00 <do_data_transfer>
    bfc4:	eaffffca 	b	bef4 <emmc_issue_command+0x104>
    bfc8:	ebffff12 	bl	bc18 <set_last_error>
    bfcc:	e3a00000 	mov	r0, #0, 0
    bfd0:	eaffffe1 	b	bf5c <emmc_issue_command+0x16c>
    bfd4:	00010b80 	.word	0x00010b80
    bfd8:	20300000 	.word	0x20300000
    bfdc:	00008001 	.word	0x00008001
    bfe0:	0000f898 	.word	0x0000f898
    bfe4:	ffff0001 	.word	0xffff0001
    bfe8:	00008002 	.word	0x00008002
    bfec:	20300030 	.word	0x20300030
    bff0:	ffff0002 	.word	0xffff0002
    bff4:	0000f8c0 	.word	0x0000f8c0

0000bff8 <emmc_command>:
    bff8:	e92d4010 	push	{r4, lr}
    bffc:	e3500000 	cmp	r0, #0, 0
    c000:	ba00000b 	blt	c034 <emmc_command+0x3c>
    c004:	e59fc048 	ldr	ip, [pc, #72]	; c054 <emmc_command+0x5c>
    c008:	e59f3048 	ldr	r3, [pc, #72]	; c058 <emmc_command+0x60>
    c00c:	e7930100 	ldr	r0, [r3, r0, lsl #2]
    c010:	e58c0008 	str	r0, [ip, #8]
    c014:	e59c0008 	ldr	r0, [ip, #8]
    c018:	e59330e0 	ldr	r3, [r3, #224]	; 0xe0
    c01c:	e1500003 	cmp	r0, r3
    c020:	0a000007 	beq	c044 <emmc_command+0x4c>
    c024:	e59f3028 	ldr	r3, [pc, #40]	; c054 <emmc_command+0x5c>
    c028:	e5930008 	ldr	r0, [r3, #8]
    c02c:	ebffff6f 	bl	bdf0 <emmc_issue_command>
    c030:	e8bd8010 	pop	{r4, pc}
    c034:	e59f0020 	ldr	r0, [pc, #32]	; c05c <emmc_command+0x64>
    c038:	eb0004a5 	bl	d2d4 <printk>
    c03c:	e3a00000 	mov	r0, #0, 0
    c040:	e8bd8010 	pop	{r4, pc}
    c044:	e59f0014 	ldr	r0, [pc, #20]	; c060 <emmc_command+0x68>
    c048:	eb0004a1 	bl	d2d4 <printk>
    c04c:	e3a00000 	mov	r0, #0, 0
    c050:	e8bd8010 	pop	{r4, pc}
    c054:	00010b80 	.word	0x00010b80
    c058:	0000fd04 	.word	0x0000fd04
    c05c:	0000f8ec 	.word	0x0000f8ec
    c060:	0000f910 	.word	0x0000f910

0000c064 <check_v2_card>:
    c064:	e92d4010 	push	{r4, lr}
    c068:	e3a020c8 	mov	r2, #200, 0	; 0xc8
    c06c:	e59f10a0 	ldr	r1, [pc, #160]	; c114 <check_v2_card+0xb0>
    c070:	e3a00008 	mov	r0, #8, 0
    c074:	ebffffdf 	bl	bff8 <emmc_command>
    c078:	e2504000 	subs	r4, r0, #0, 0
    c07c:	1a000017 	bne	c0e0 <check_v2_card+0x7c>
    c080:	e59f3090 	ldr	r3, [pc, #144]	; c118 <check_v2_card+0xb4>
    c084:	e5933040 	ldr	r3, [r3, #64]	; 0x40
    c088:	e3530000 	cmp	r3, #0, 0
    c08c:	0a000006 	beq	c0ac <check_v2_card+0x48>
    c090:	e3130801 	tst	r3, #65536	; 0x10000
    c094:	0a00000e 	beq	c0d4 <check_v2_card+0x70>
    c098:	ebfffee5 	bl	bc34 <reset_command>
    c09c:	e3500000 	cmp	r0, #0, 0
    c0a0:	1a000004 	bne	c0b8 <check_v2_card+0x54>
    c0a4:	e1a04000 	mov	r4, r0
    c0a8:	ea000013 	b	c0fc <check_v2_card+0x98>
    c0ac:	e59f0068 	ldr	r0, [pc, #104]	; c11c <check_v2_card+0xb8>
    c0b0:	eb000487 	bl	d2d4 <printk>
    c0b4:	ea000010 	b	c0fc <check_v2_card+0x98>
    c0b8:	e3a00000 	mov	r0, #0, 0
    c0bc:	ebfffed1 	bl	bc08 <sd_error_mask>
    c0c0:	e59f3058 	ldr	r3, [pc, #88]	; c120 <check_v2_card+0xbc>
    c0c4:	e5830030 	str	r0, [r3, #48]	; 0x30
    c0c8:	e59f0054 	ldr	r0, [pc, #84]	; c124 <check_v2_card+0xc0>
    c0cc:	eb000480 	bl	d2d4 <printk>
    c0d0:	ea000009 	b	c0fc <check_v2_card+0x98>
    c0d4:	e59f004c 	ldr	r0, [pc, #76]	; c128 <check_v2_card+0xc4>
    c0d8:	eb00047d 	bl	d2d4 <printk>
    c0dc:	ea000006 	b	c0fc <check_v2_card+0x98>
    c0e0:	e59f3030 	ldr	r3, [pc, #48]	; c118 <check_v2_card+0xb4>
    c0e4:	e5931014 	ldr	r1, [r3, #20]
    c0e8:	e1a03a01 	lsl	r3, r1, #20
    c0ec:	e1a03a23 	lsr	r3, r3, #20
    c0f0:	e59f201c 	ldr	r2, [pc, #28]	; c114 <check_v2_card+0xb0>
    c0f4:	e1530002 	cmp	r3, r2
    c0f8:	1a000001 	bne	c104 <check_v2_card+0xa0>
    c0fc:	e1a00004 	mov	r0, r4
    c100:	e8bd8010 	pop	{r4, pc}
    c104:	e59f0020 	ldr	r0, [pc, #32]	; c12c <check_v2_card+0xc8>
    c108:	eb000471 	bl	d2d4 <printk>
    c10c:	e3a04000 	mov	r4, #0, 0
    c110:	eafffff9 	b	c0fc <check_v2_card+0x98>
    c114:	000001aa 	.word	0x000001aa
    c118:	00010b80 	.word	0x00010b80
    c11c:	0000f92c 	.word	0x0000f92c
    c120:	20300000 	.word	0x20300000
    c124:	0000f94c 	.word	0x0000f94c
    c128:	0000f970 	.word	0x0000f970
    c12c:	0000f998 	.word	0x0000f998

0000c130 <check_usable_card>:
    c130:	e92d4010 	push	{r4, lr}
    c134:	e3a02ffa 	mov	r2, #1000	; 0x3e8
    c138:	e3a01000 	mov	r1, #0, 0
    c13c:	e3a00005 	mov	r0, #5, 0
    c140:	ebffffac 	bl	bff8 <emmc_command>
    c144:	e2504000 	subs	r4, r0, #0, 0
    c148:	1a000010 	bne	c190 <check_usable_card+0x60>
    c14c:	e59f3050 	ldr	r3, [pc, #80]	; c1a4 <check_usable_card+0x74>
    c150:	e5933040 	ldr	r3, [r3, #64]	; 0x40
    c154:	e3530000 	cmp	r3, #0, 0
    c158:	0a000009 	beq	c184 <check_usable_card+0x54>
    c15c:	e3130801 	tst	r3, #65536	; 0x10000
    c160:	0a00000c 	beq	c198 <check_usable_card+0x68>
    c164:	ebfffeb2 	bl	bc34 <reset_command>
    c168:	e2504000 	subs	r4, r0, #0, 0
    c16c:	0a000007 	beq	c190 <check_usable_card+0x60>
    c170:	e3a00000 	mov	r0, #0, 0
    c174:	ebfffea3 	bl	bc08 <sd_error_mask>
    c178:	e59f3028 	ldr	r3, [pc, #40]	; c1a8 <check_usable_card+0x78>
    c17c:	e5830030 	str	r0, [r3, #48]	; 0x30
    c180:	ea000002 	b	c190 <check_usable_card+0x60>
    c184:	e59f0020 	ldr	r0, [pc, #32]	; c1ac <check_usable_card+0x7c>
    c188:	eb000451 	bl	d2d4 <printk>
    c18c:	e3a04001 	mov	r4, #1, 0
    c190:	e1a00004 	mov	r0, r4
    c194:	e8bd8010 	pop	{r4, pc}
    c198:	e59f0010 	ldr	r0, [pc, #16]	; c1b0 <check_usable_card+0x80>
    c19c:	eb00044c 	bl	d2d4 <printk>
    c1a0:	eafffffa 	b	c190 <check_usable_card+0x60>
    c1a4:	00010b80 	.word	0x00010b80
    c1a8:	20300000 	.word	0x20300000
    c1ac:	0000f9b8 	.word	0x0000f9b8
    c1b0:	0000f9dc 	.word	0x0000f9dc

0000c1b4 <check_rca>:
    c1b4:	e92d4010 	push	{r4, lr}
    c1b8:	e3a02e7d 	mov	r2, #2000	; 0x7d0
    c1bc:	e3a01000 	mov	r1, #0, 0
    c1c0:	e3a00002 	mov	r0, #2, 0
    c1c4:	ebffff8b 	bl	bff8 <emmc_command>
    c1c8:	e2504000 	subs	r4, r0, #0, 0
    c1cc:	0a00000d 	beq	c208 <check_rca+0x54>
    c1d0:	e3a02e7d 	mov	r2, #2000	; 0x7d0
    c1d4:	e3a01000 	mov	r1, #0, 0
    c1d8:	e3a00003 	mov	r0, #3, 0
    c1dc:	ebffff85 	bl	bff8 <emmc_command>
    c1e0:	e2504000 	subs	r4, r0, #0, 0
    c1e4:	0a00000a 	beq	c214 <check_rca+0x60>
    c1e8:	e59f2040 	ldr	r2, [pc, #64]	; c230 <check_rca+0x7c>
    c1ec:	e5923014 	ldr	r3, [r2, #20]
    c1f0:	e1a01823 	lsr	r1, r3, #16
    c1f4:	e5821028 	str	r1, [r2, #40]	; 0x28
    c1f8:	e3130c01 	tst	r3, #256	; 0x100
    c1fc:	0a000007 	beq	c220 <check_rca+0x6c>
    c200:	e1a00004 	mov	r0, r4
    c204:	e8bd8010 	pop	{r4, pc}
    c208:	e59f0024 	ldr	r0, [pc, #36]	; c234 <check_rca+0x80>
    c20c:	eb000430 	bl	d2d4 <printk>
    c210:	eafffffa 	b	c200 <check_rca+0x4c>
    c214:	e59f001c 	ldr	r0, [pc, #28]	; c238 <check_rca+0x84>
    c218:	eb00042d 	bl	d2d4 <printk>
    c21c:	eafffff7 	b	c200 <check_rca+0x4c>
    c220:	e59f0014 	ldr	r0, [pc, #20]	; c23c <check_rca+0x88>
    c224:	eb00042a 	bl	d2d4 <printk>
    c228:	e3a04000 	mov	r4, #0, 0
    c22c:	eafffff3 	b	c200 <check_rca+0x4c>
    c230:	00010b80 	.word	0x00010b80
    c234:	0000fa00 	.word	0x0000fa00
    c238:	0000fa20 	.word	0x0000fa20
    c23c:	0000fa48 	.word	0x0000fa48

0000c240 <select_card>:
    c240:	e92d4010 	push	{r4, lr}
    c244:	e59f3058 	ldr	r3, [pc, #88]	; c2a4 <select_card+0x64>
    c248:	e5931028 	ldr	r1, [r3, #40]	; 0x28
    c24c:	e3a02e7d 	mov	r2, #2000	; 0x7d0
    c250:	e1a01801 	lsl	r1, r1, #16
    c254:	e3a00007 	mov	r0, #7, 0
    c258:	ebffff66 	bl	bff8 <emmc_command>
    c25c:	e2504000 	subs	r4, r0, #0, 0
    c260:	0a000008 	beq	c288 <select_card+0x48>
    c264:	e59f3038 	ldr	r3, [pc, #56]	; c2a4 <select_card+0x64>
    c268:	e5931014 	ldr	r1, [r3, #20]
    c26c:	e1a014a1 	lsr	r1, r1, #9
    c270:	e201100f 	and	r1, r1, #15, 0
    c274:	e2413003 	sub	r3, r1, #3, 0
    c278:	e3530001 	cmp	r3, #1, 0
    c27c:	8a000004 	bhi	c294 <select_card+0x54>
    c280:	e1a00004 	mov	r0, r4
    c284:	e8bd8010 	pop	{r4, pc}
    c288:	e59f0018 	ldr	r0, [pc, #24]	; c2a8 <select_card+0x68>
    c28c:	eb000410 	bl	d2d4 <printk>
    c290:	eafffffa 	b	c280 <select_card+0x40>
    c294:	e59f0010 	ldr	r0, [pc, #16]	; c2ac <select_card+0x6c>
    c298:	eb00040d 	bl	d2d4 <printk>
    c29c:	e3a04000 	mov	r4, #0, 0
    c2a0:	eafffff6 	b	c280 <select_card+0x40>
    c2a4:	00010b80 	.word	0x00010b80
    c2a8:	0000fa68 	.word	0x0000fa68
    c2ac:	0000fa8c 	.word	0x0000fa8c

0000c2b0 <do_data_command>:
    c2b0:	e92d40f0 	push	{r4, r5, r6, r7, lr}
    c2b4:	e24dd00c 	sub	sp, sp, #12, 0
    c2b8:	e1a0c001 	mov	ip, r1
    c2bc:	e1a01002 	mov	r1, r2
    c2c0:	e1a05003 	mov	r5, r3
    c2c4:	e59f3114 	ldr	r3, [pc, #276]	; c3e0 <do_data_command+0x130>
    c2c8:	e5d33024 	ldrb	r3, [r3, #36]	; 0x24
    c2cc:	e3530000 	cmp	r3, #0, 0
    c2d0:	01a05485 	lsleq	r5, r5, #9
    c2d4:	e59f3104 	ldr	r3, [pc, #260]	; c3e0 <do_data_command+0x130>
    c2d8:	e5932010 	ldr	r2, [r3, #16]
    c2dc:	e1520001 	cmp	r2, r1
    c2e0:	8a000010 	bhi	c328 <do_data_command+0x78>
    c2e4:	e3520c02 	cmp	r2, #512	; 0x200
    c2e8:	1a000012 	bne	c338 <do_data_command+0x88>
    c2ec:	e1a034a1 	lsr	r3, r1, #9
    c2f0:	e59f20e8 	ldr	r2, [pc, #232]	; c3e0 <do_data_command+0x130>
    c2f4:	e5823004 	str	r3, [r2, #4]
    c2f8:	e1a02b81 	lsl	r2, r1, #23
    c2fc:	e1a02ba2 	lsr	r2, r2, #23
    c300:	e3520000 	cmp	r2, #0, 0
    c304:	1a000013 	bne	c358 <do_data_command+0xa8>
    c308:	e59f20d0 	ldr	r2, [pc, #208]	; c3e0 <do_data_command+0x130>
    c30c:	e582c038 	str	ip, [r2, #56]	; 0x38
    c310:	e3500000 	cmp	r0, #0, 0
    c314:	0a000013 	beq	c368 <do_data_command+0xb8>
    c318:	e3530001 	cmp	r3, #1, 0
    c31c:	9a000011 	bls	c368 <do_data_command+0xb8>
    c320:	e3a07019 	mov	r7, #25, 0
    c324:	ea000017 	b	c388 <do_data_command+0xd8>
    c328:	e59f00b4 	ldr	r0, [pc, #180]	; c3e4 <do_data_command+0x134>
    c32c:	eb0003e8 	bl	d2d4 <printk>
    c330:	e3a04000 	mov	r4, #0, 0
    c334:	ea000026 	b	c3d4 <do_data_command+0x124>
    c338:	e59f30a8 	ldr	r3, [pc, #168]	; c3e8 <do_data_command+0x138>
    c33c:	e58d3000 	str	r3, [sp]
    c340:	e59f30a4 	ldr	r3, [pc, #164]	; c3ec <do_data_command+0x13c>
    c344:	e59f20a4 	ldr	r2, [pc, #164]	; c3f0 <do_data_command+0x140>
    c348:	e59f10a4 	ldr	r1, [pc, #164]	; c3f4 <do_data_command+0x144>
    c34c:	e59f00a4 	ldr	r0, [pc, #164]	; c3f8 <do_data_command+0x148>
    c350:	eb0003df 	bl	d2d4 <printk>
    c354:	eb00050e 	bl	d794 <clean_reboot>
    c358:	e59f009c 	ldr	r0, [pc, #156]	; c3fc <do_data_command+0x14c>
    c35c:	eb0003dc 	bl	d2d4 <printk>
    c360:	e3a04000 	mov	r4, #0, 0
    c364:	ea00001a 	b	c3d4 <do_data_command+0x124>
    c368:	e3500000 	cmp	r0, #0, 0
    c36c:	1a000004 	bne	c384 <do_data_command+0xd4>
    c370:	e3530001 	cmp	r3, #1, 0
    c374:	83a07012 	movhi	r7, #18, 0
    c378:	8a000002 	bhi	c388 <do_data_command+0xd8>
    c37c:	e3a07011 	mov	r7, #17, 0
    c380:	ea000000 	b	c388 <do_data_command+0xd8>
    c384:	e3a07018 	mov	r7, #24, 0
    c388:	e3a06000 	mov	r6, #0, 0
    c38c:	e3560002 	cmp	r6, #2, 0
    c390:	ca00000e 	bgt	c3d0 <do_data_command+0x120>
    c394:	e59f2064 	ldr	r2, [pc, #100]	; c400 <do_data_command+0x150>
    c398:	e1a01005 	mov	r1, r5
    c39c:	e1a00007 	mov	r0, r7
    c3a0:	ebffff14 	bl	bff8 <emmc_command>
    c3a4:	e2504000 	subs	r4, r0, #0, 0
    c3a8:	1a000009 	bne	c3d4 <do_data_command+0x124>
    c3ac:	e2866001 	add	r6, r6, #1, 0
    c3b0:	e3560002 	cmp	r6, #2, 0
    c3b4:	ca000002 	bgt	c3c4 <do_data_command+0x114>
    c3b8:	e59f0044 	ldr	r0, [pc, #68]	; c404 <do_data_command+0x154>
    c3bc:	eb0003c4 	bl	d2d4 <printk>
    c3c0:	eafffff1 	b	c38c <do_data_command+0xdc>
    c3c4:	e59f003c 	ldr	r0, [pc, #60]	; c408 <do_data_command+0x158>
    c3c8:	eb0003c1 	bl	d2d4 <printk>
    c3cc:	ea000000 	b	c3d4 <do_data_command+0x124>
    c3d0:	e3a04001 	mov	r4, #1, 0
    c3d4:	e1a00004 	mov	r0, r4
    c3d8:	e28dd00c 	add	sp, sp, #12, 0
    c3dc:	e8bd80f0 	pop	{r4, r5, r6, r7, pc}
    c3e0:	00010b80 	.word	0x00010b80
    c3e4:	0000faac 	.word	0x0000faac
    c3e8:	0000fae4 	.word	0x0000fae4
    c3ec:	000002b1 	.word	0x000002b1
    c3f0:	0000fde8 	.word	0x0000fde8
    c3f4:	0000facc 	.word	0x0000facc
    c3f8:	0000e094 	.word	0x0000e094
    c3fc:	0000fb00 	.word	0x0000fb00
    c400:	00001388 	.word	0x00001388
    c404:	0000fb1c 	.word	0x0000fb1c
    c408:	0000fb40 	.word	0x0000fb40

0000c40c <emmc_setup_clock>:
    c40c:	e92d4070 	push	{r4, r5, r6, lr}
    c410:	e59f5074 	ldr	r5, [pc, #116]	; c48c <emmc_setup_clock+0x80>
    c414:	e3a03000 	mov	r3, #0, 0
    c418:	e585303c 	str	r3, [r5, #60]	; 0x3c
    c41c:	e595402c 	ldr	r4, [r5, #44]	; 0x2c
    c420:	e3844001 	orr	r4, r4, #1, 0
    c424:	e59f0064 	ldr	r0, [pc, #100]	; c490 <emmc_setup_clock+0x84>
    c428:	ebfffdc5 	bl	bb44 <get_clock_divider>
    c42c:	e1844000 	orr	r4, r4, r0
    c430:	e3c4480f 	bic	r4, r4, #983040	; 0xf0000
    c434:	e384480b 	orr	r4, r4, #720896	; 0xb0000
    c438:	e585402c 	str	r4, [r5, #44]	; 0x2c
    c43c:	e3a03e7d 	mov	r3, #2000	; 0x7d0
    c440:	e3a02001 	mov	r2, #1, 0
    c444:	e3a01002 	mov	r1, #2, 0
    c448:	e59f0044 	ldr	r0, [pc, #68]	; c494 <emmc_setup_clock+0x88>
    c44c:	ebfffe14 	bl	bca4 <wait_reg_mask>
    c450:	e2504000 	subs	r4, r0, #0, 0
    c454:	0a000009 	beq	c480 <emmc_setup_clock+0x74>
    c458:	e3a0001e 	mov	r0, #30, 0
    c45c:	eb00051f 	bl	d8e0 <delay_ms>
    c460:	e59f2024 	ldr	r2, [pc, #36]	; c48c <emmc_setup_clock+0x80>
    c464:	e592302c 	ldr	r3, [r2, #44]	; 0x2c
    c468:	e3833004 	orr	r3, r3, #4, 0
    c46c:	e582302c 	str	r3, [r2, #44]	; 0x2c
    c470:	e3a0001e 	mov	r0, #30, 0
    c474:	eb000519 	bl	d8e0 <delay_ms>
    c478:	e1a00004 	mov	r0, r4
    c47c:	e8bd8070 	pop	{r4, r5, r6, pc}
    c480:	e59f0010 	ldr	r0, [pc, #16]	; c498 <emmc_setup_clock+0x8c>
    c484:	eb000392 	bl	d2d4 <printk>
    c488:	eafffffa 	b	c478 <emmc_setup_clock+0x6c>
    c48c:	20300000 	.word	0x20300000
    c490:	0ee6b280 	.word	0x0ee6b280
    c494:	2030002c 	.word	0x2030002c
    c498:	0000fb64 	.word	0x0000fb64

0000c49c <emmc_app_command>:
    c49c:	e92d4070 	push	{r4, r5, r6, lr}
    c4a0:	e59f307c 	ldr	r3, [pc, #124]	; c524 <emmc_app_command+0x88>
    c4a4:	e0833100 	add	r3, r3, r0, lsl #2
    c4a8:	e5d33003 	ldrb	r3, [r3, #3]
    c4ac:	e203303f 	and	r3, r3, #63, 0	; 0x3f
    c4b0:	e353003b 	cmp	r3, #59, 0	; 0x3b
    c4b4:	8a000016 	bhi	c514 <emmc_app_command+0x78>
    c4b8:	e1a04000 	mov	r4, r0
    c4bc:	e1a05001 	mov	r5, r1
    c4c0:	e59f3060 	ldr	r3, [pc, #96]	; c528 <emmc_app_command+0x8c>
    c4c4:	e59f2058 	ldr	r2, [pc, #88]	; c524 <emmc_app_command+0x88>
    c4c8:	e59220dc 	ldr	r2, [r2, #220]	; 0xdc
    c4cc:	e5832008 	str	r2, [r3, #8]
    c4d0:	e5931028 	ldr	r1, [r3, #40]	; 0x28
    c4d4:	e3510000 	cmp	r1, #0, 0
    c4d8:	11a01801 	lslne	r1, r1, #16
    c4dc:	e3a02e7d 	mov	r2, #2000	; 0x7d0
    c4e0:	e59f3040 	ldr	r3, [pc, #64]	; c528 <emmc_app_command+0x8c>
    c4e4:	e5930008 	ldr	r0, [r3, #8]
    c4e8:	ebfffe40 	bl	bdf0 <emmc_issue_command>
    c4ec:	e3500000 	cmp	r0, #0, 0
    c4f0:	08bd8070 	popeq	{r4, r5, r6, pc}
    c4f4:	e59f3028 	ldr	r3, [pc, #40]	; c524 <emmc_app_command+0x88>
    c4f8:	e7930104 	ldr	r0, [r3, r4, lsl #2]
    c4fc:	e59f3024 	ldr	r3, [pc, #36]	; c528 <emmc_app_command+0x8c>
    c500:	e5830008 	str	r0, [r3, #8]
    c504:	e3a02e7d 	mov	r2, #2000	; 0x7d0
    c508:	e1a01005 	mov	r1, r5
    c50c:	ebfffe37 	bl	bdf0 <emmc_issue_command>
    c510:	e8bd8070 	pop	{r4, r5, r6, pc}
    c514:	e59f0010 	ldr	r0, [pc, #16]	; c52c <emmc_app_command+0x90>
    c518:	eb00036d 	bl	d2d4 <printk>
    c51c:	e3a00000 	mov	r0, #0, 0
    c520:	e8bd8070 	pop	{r4, r5, r6, pc}
    c524:	0000fd04 	.word	0x0000fd04
    c528:	00010b80 	.word	0x00010b80
    c52c:	0000fb84 	.word	0x0000fb84

0000c530 <check_ocr>:
    c530:	e92d4010 	push	{r4, lr}
    c534:	e3a02e7d 	mov	r2, #2000	; 0x7d0
    c538:	e3a01000 	mov	r1, #0, 0
    c53c:	e3a00029 	mov	r0, #41, 0	; 0x29
    c540:	ebffffd5 	bl	c49c <emmc_app_command>
    c544:	e2504000 	subs	r4, r0, #0, 0
    c548:	0a000005 	beq	c564 <check_ocr+0x34>
    c54c:	e59f2020 	ldr	r2, [pc, #32]	; c574 <check_ocr+0x44>
    c550:	e5923014 	ldr	r3, [r2, #20]
    c554:	e1a03423 	lsr	r3, r3, #8
    c558:	e1c232b6 	strh	r3, [r2, #38]	; 0x26
    c55c:	e1a00004 	mov	r0, r4
    c560:	e8bd8010 	pop	{r4, pc}
    c564:	e3a01001 	mov	r1, #1, 0
    c568:	e59f0008 	ldr	r0, [pc, #8]	; c578 <check_ocr+0x48>
    c56c:	eb000358 	bl	d2d4 <printk>
    c570:	eafffff9 	b	c55c <check_ocr+0x2c>
    c574:	00010b80 	.word	0x00010b80
    c578:	0000fba4 	.word	0x0000fba4

0000c57c <check_sdhc_support>:
    c57c:	e92d4070 	push	{r4, r5, r6, lr}
    c580:	e1a05000 	mov	r5, r0
    c584:	ea00000d 	b	c5c0 <check_sdhc_support+0x44>
    c588:	e3a01101 	mov	r1, #1073741824	; 0x40000000
    c58c:	e3a02e7d 	mov	r2, #2000	; 0x7d0
    c590:	e38118ff 	orr	r1, r1, #16711680	; 0xff0000
    c594:	e3811902 	orr	r1, r1, #32768	; 0x8000
    c598:	e3a00029 	mov	r0, #41, 0	; 0x29
    c59c:	ebffffbe 	bl	c49c <emmc_app_command>
    c5a0:	e2504000 	subs	r4, r0, #0, 0
    c5a4:	0a000009 	beq	c5d0 <check_sdhc_support+0x54>
    c5a8:	e59f304c 	ldr	r3, [pc, #76]	; c5fc <check_sdhc_support+0x80>
    c5ac:	e5933014 	ldr	r3, [r3, #20]
    c5b0:	e3530000 	cmp	r3, #0, 0
    c5b4:	ba000009 	blt	c5e0 <check_sdhc_support+0x64>
    c5b8:	e3a00f7d 	mov	r0, #500	; 0x1f4
    c5bc:	eb0004c7 	bl	d8e0 <delay_ms>
    c5c0:	e3550000 	cmp	r5, #0, 0
    c5c4:	1affffef 	bne	c588 <check_sdhc_support+0xc>
    c5c8:	e3a01000 	mov	r1, #0, 0
    c5cc:	eaffffee 	b	c58c <check_sdhc_support+0x10>
    c5d0:	e59f0028 	ldr	r0, [pc, #40]	; c600 <check_sdhc_support+0x84>
    c5d4:	eb00033e 	bl	d2d4 <printk>
    c5d8:	e1a00004 	mov	r0, r4
    c5dc:	e8bd8070 	pop	{r4, r5, r6, pc}
    c5e0:	e1a01423 	lsr	r1, r3, #8
    c5e4:	e59f2010 	ldr	r2, [pc, #16]	; c5fc <check_sdhc_support+0x80>
    c5e8:	e1c212b6 	strh	r1, [r2, #38]	; 0x26
    c5ec:	e1a03f23 	lsr	r3, r3, #30
    c5f0:	e2033001 	and	r3, r3, #1, 0
    c5f4:	e5c23024 	strb	r3, [r2, #36]	; 0x24
    c5f8:	eafffff6 	b	c5d8 <check_sdhc_support+0x5c>
    c5fc:	00010b80 	.word	0x00010b80
    c600:	0000fbd0 	.word	0x0000fbd0

0000c604 <set_scr>:
    c604:	e92d4010 	push	{r4, lr}
    c608:	e59f313c 	ldr	r3, [pc, #316]	; c74c <set_scr+0x148>
    c60c:	e5d33024 	ldrb	r3, [r3, #36]	; 0x24
    c610:	e3530000 	cmp	r3, #0, 0
    c614:	1a000005 	bne	c630 <set_scr+0x2c>
    c618:	e3a02e7d 	mov	r2, #2000	; 0x7d0
    c61c:	e3a01c02 	mov	r1, #512	; 0x200
    c620:	e3a00010 	mov	r0, #16, 0
    c624:	ebfffe73 	bl	bff8 <emmc_command>
    c628:	e2504000 	subs	r4, r0, #0, 0
    c62c:	0a00002a 	beq	c6dc <set_scr+0xd8>
    c630:	e59f2118 	ldr	r2, [pc, #280]	; c750 <set_scr+0x14c>
    c634:	e5923004 	ldr	r3, [r2, #4]
    c638:	e3c33eff 	bic	r3, r3, #4080	; 0xff0
    c63c:	e3c3300f 	bic	r3, r3, #15, 0
    c640:	e3833c02 	orr	r3, r3, #512	; 0x200
    c644:	e5823004 	str	r3, [r2, #4]
    c648:	e59f30fc 	ldr	r3, [pc, #252]	; c74c <set_scr+0x148>
    c64c:	e2832048 	add	r2, r3, #72, 0	; 0x48
    c650:	e5832038 	str	r2, [r3, #56]	; 0x38
    c654:	e3a02008 	mov	r2, #8, 0
    c658:	e5832010 	str	r2, [r3, #16]
    c65c:	e3a02001 	mov	r2, #1, 0
    c660:	e5832004 	str	r2, [r3, #4]
    c664:	e59f20e8 	ldr	r2, [pc, #232]	; c754 <set_scr+0x150>
    c668:	e3a01000 	mov	r1, #0, 0
    c66c:	e3a00033 	mov	r0, #51, 0	; 0x33
    c670:	ebffff89 	bl	c49c <emmc_app_command>
    c674:	e2504000 	subs	r4, r0, #0, 0
    c678:	0a00001a 	beq	c6e8 <set_scr+0xe4>
    c67c:	e59f10c8 	ldr	r1, [pc, #200]	; c74c <set_scr+0x148>
    c680:	e3a03c02 	mov	r3, #512	; 0x200
    c684:	e5813010 	str	r3, [r1, #16]
    c688:	e5913048 	ldr	r3, [r1, #72]	; 0x48
    c68c:	e1a02403 	lsl	r2, r3, #8
    c690:	e20228ff 	and	r2, r2, #16711680	; 0xff0000
    c694:	e1822c03 	orr	r2, r2, r3, lsl #24
    c698:	e1a03423 	lsr	r3, r3, #8
    c69c:	e2033cff 	and	r3, r3, #65280	; 0xff00
    c6a0:	e1823003 	orr	r3, r2, r3
    c6a4:	e3e00000 	mvn	r0, #0, 0
    c6a8:	e5810054 	str	r0, [r1, #84]	; 0x54
    c6ac:	e1a02c22 	lsr	r2, r2, #24
    c6b0:	e1a017a3 	lsr	r1, r3, #15
    c6b4:	e2011001 	and	r1, r1, #1, 0
    c6b8:	e1a03523 	lsr	r3, r3, #10
    c6bc:	e2033001 	and	r3, r3, #1, 0
    c6c0:	e212200f 	ands	r2, r2, #15, 0
    c6c4:	1a00000a 	bne	c6f4 <set_scr+0xf0>
    c6c8:	e59f307c 	ldr	r3, [pc, #124]	; c74c <set_scr+0x148>
    c6cc:	e3a02001 	mov	r2, #1, 0
    c6d0:	e5832054 	str	r2, [r3, #84]	; 0x54
    c6d4:	e1a00004 	mov	r0, r4
    c6d8:	e8bd8010 	pop	{r4, pc}
    c6dc:	e59f0074 	ldr	r0, [pc, #116]	; c758 <set_scr+0x154>
    c6e0:	eb0002fb 	bl	d2d4 <printk>
    c6e4:	eafffffa 	b	c6d4 <set_scr+0xd0>
    c6e8:	e59f006c 	ldr	r0, [pc, #108]	; c75c <set_scr+0x158>
    c6ec:	eb0002f8 	bl	d2d4 <printk>
    c6f0:	eafffff7 	b	c6d4 <set_scr+0xd0>
    c6f4:	e3520001 	cmp	r2, #1, 0
    c6f8:	0a000006 	beq	c718 <set_scr+0x114>
    c6fc:	e3520002 	cmp	r2, #2, 0
    c700:	1afffff3 	bne	c6d4 <set_scr+0xd0>
    c704:	e3510000 	cmp	r1, #0, 0
    c708:	1a000006 	bne	c728 <set_scr+0x124>
    c70c:	e59f3038 	ldr	r3, [pc, #56]	; c74c <set_scr+0x148>
    c710:	e5832054 	str	r2, [r3, #84]	; 0x54
    c714:	eaffffee 	b	c6d4 <set_scr+0xd0>
    c718:	e59f302c 	ldr	r3, [pc, #44]	; c74c <set_scr+0x148>
    c71c:	e3a0200b 	mov	r2, #11, 0
    c720:	e5832054 	str	r2, [r3, #84]	; 0x54
    c724:	eaffffea 	b	c6d4 <set_scr+0xd0>
    c728:	e3530000 	cmp	r3, #0, 0
    c72c:	059f2018 	ldreq	r2, [pc, #24]	; c74c <set_scr+0x148>
    c730:	03a01003 	moveq	r1, #3, 0
    c734:	05821054 	streq	r1, [r2, #84]	; 0x54
    c738:	e3530000 	cmp	r3, #0, 0
    c73c:	159f3008 	ldrne	r3, [pc, #8]	; c74c <set_scr+0x148>
    c740:	13a02004 	movne	r2, #4, 0
    c744:	15832054 	strne	r2, [r3, #84]	; 0x54
    c748:	eaffffe1 	b	c6d4 <set_scr+0xd0>
    c74c:	00010b80 	.word	0x00010b80
    c750:	20300000 	.word	0x20300000
    c754:	00007530 	.word	0x00007530
    c758:	0000fbf4 	.word	0x0000fbf4
    c75c:	0000fc18 	.word	0x0000fc18

0000c760 <emmc_card_reset>:
    c760:	e92d4070 	push	{r4, r5, r6, lr}
    c764:	e59f30fc 	ldr	r3, [pc, #252]	; c868 <emmc_card_reset+0x108>
    c768:	e3a02401 	mov	r2, #16777216	; 0x1000000
    c76c:	e583202c 	str	r2, [r3, #44]	; 0x2c
    c770:	e3a03e7d 	mov	r3, #2000	; 0x7d0
    c774:	e3a02000 	mov	r2, #0, 0
    c778:	e3a01407 	mov	r1, #117440512	; 0x7000000
    c77c:	e59f00e8 	ldr	r0, [pc, #232]	; c86c <emmc_card_reset+0x10c>
    c780:	ebfffd47 	bl	bca4 <wait_reg_mask>
    c784:	e2504000 	subs	r4, r0, #0, 0
    c788:	0a00002f 	beq	c84c <emmc_card_reset+0xec>
    c78c:	ebffff1e 	bl	c40c <emmc_setup_clock>
    c790:	e2504000 	subs	r4, r0, #0, 0
    c794:	0a00002e 	beq	c854 <emmc_card_reset+0xf4>
    c798:	e59f30c8 	ldr	r3, [pc, #200]	; c868 <emmc_card_reset+0x108>
    c79c:	e3a04000 	mov	r4, #0, 0
    c7a0:	e5834038 	str	r4, [r3, #56]	; 0x38
    c7a4:	e3e02000 	mvn	r2, #0, 0
    c7a8:	e5832030 	str	r2, [r3, #48]	; 0x30
    c7ac:	e5832034 	str	r2, [r3, #52]	; 0x34
    c7b0:	e3a000cb 	mov	r0, #203, 0	; 0xcb
    c7b4:	eb000449 	bl	d8e0 <delay_ms>
    c7b8:	e59f30b0 	ldr	r3, [pc, #176]	; c870 <emmc_card_reset+0x110>
    c7bc:	e5834004 	str	r4, [r3, #4]
    c7c0:	e583400c 	str	r4, [r3, #12]
    c7c4:	e5c34000 	strb	r4, [r3]
    c7c8:	e5834010 	str	r4, [r3, #16]
    c7cc:	e3a02e7d 	mov	r2, #2000	; 0x7d0
    c7d0:	e1a01004 	mov	r1, r4
    c7d4:	e1a00004 	mov	r0, r4
    c7d8:	ebfffe06 	bl	bff8 <emmc_command>
    c7dc:	e2504000 	subs	r4, r0, #0, 0
    c7e0:	0a00001d 	beq	c85c <emmc_card_reset+0xfc>
    c7e4:	ebfffe1e 	bl	c064 <check_v2_card>
    c7e8:	e1a05000 	mov	r5, r0
    c7ec:	ebfffe4f 	bl	c130 <check_usable_card>
    c7f0:	e2504000 	subs	r4, r0, #0, 0
    c7f4:	0a000016 	beq	c854 <emmc_card_reset+0xf4>
    c7f8:	ebffff4c 	bl	c530 <check_ocr>
    c7fc:	e2504000 	subs	r4, r0, #0, 0
    c800:	0a000013 	beq	c854 <emmc_card_reset+0xf4>
    c804:	e1a00005 	mov	r0, r5
    c808:	ebffff5b 	bl	c57c <check_sdhc_support>
    c80c:	e2504000 	subs	r4, r0, #0, 0
    c810:	0a00000f 	beq	c854 <emmc_card_reset+0xf4>
    c814:	e3a0000a 	mov	r0, #10, 0
    c818:	eb000430 	bl	d8e0 <delay_ms>
    c81c:	ebfffe64 	bl	c1b4 <check_rca>
    c820:	e2504000 	subs	r4, r0, #0, 0
    c824:	0a00000a 	beq	c854 <emmc_card_reset+0xf4>
    c828:	ebfffe84 	bl	c240 <select_card>
    c82c:	e2504000 	subs	r4, r0, #0, 0
    c830:	0a000007 	beq	c854 <emmc_card_reset+0xf4>
    c834:	ebffff72 	bl	c604 <set_scr>
    c838:	e2504000 	subs	r4, r0, #0, 0
    c83c:	159f3024 	ldrne	r3, [pc, #36]	; c868 <emmc_card_reset+0x108>
    c840:	13e02000 	mvnne	r2, #0, 0
    c844:	15832030 	strne	r2, [r3, #48]	; 0x30
    c848:	ea000001 	b	c854 <emmc_card_reset+0xf4>
    c84c:	e59f0020 	ldr	r0, [pc, #32]	; c874 <emmc_card_reset+0x114>
    c850:	eb00029f 	bl	d2d4 <printk>
    c854:	e1a00004 	mov	r0, r4
    c858:	e8bd8070 	pop	{r4, r5, r6, pc}
    c85c:	e59f0014 	ldr	r0, [pc, #20]	; c878 <emmc_card_reset+0x118>
    c860:	eb00029b 	bl	d2d4 <printk>
    c864:	eafffffa 	b	c854 <emmc_card_reset+0xf4>
    c868:	20300000 	.word	0x20300000
    c86c:	2030002c 	.word	0x2030002c
    c870:	00010b80 	.word	0x00010b80
    c874:	0000fc38 	.word	0x0000fc38
    c878:	0000fc58 	.word	0x0000fc58

0000c87c <emmc_read>:
    c87c:	e92d4030 	push	{r4, r5, lr}
    c880:	e24dd00c 	sub	sp, sp, #12, 0
    c884:	e1a03b82 	lsl	r3, r2, #23
    c888:	e1a03ba3 	lsr	r3, r3, #23
    c88c:	e3530000 	cmp	r3, #0, 0
    c890:	1a000009 	bne	c8bc <emmc_read+0x40>
    c894:	e1a05000 	mov	r5, r0
    c898:	e1a04002 	mov	r4, r2
    c89c:	e1a03000 	mov	r3, r0
    c8a0:	e3a00000 	mov	r0, #0, 0
    c8a4:	ebfffe81 	bl	c2b0 <do_data_command>
    c8a8:	e3500000 	cmp	r0, #0, 0
    c8ac:	0a00000a 	beq	c8dc <emmc_read+0x60>
    c8b0:	e1a00004 	mov	r0, r4
    c8b4:	e28dd00c 	add	sp, sp, #12, 0
    c8b8:	e8bd8030 	pop	{r4, r5, pc}
    c8bc:	e59f3030 	ldr	r3, [pc, #48]	; c8f4 <emmc_read+0x78>
    c8c0:	e58d3000 	str	r3, [sp]
    c8c4:	e59f302c 	ldr	r3, [pc, #44]	; c8f8 <emmc_read+0x7c>
    c8c8:	e59f202c 	ldr	r2, [pc, #44]	; c8fc <emmc_read+0x80>
    c8cc:	e59f102c 	ldr	r1, [pc, #44]	; c900 <emmc_read+0x84>
    c8d0:	e59f002c 	ldr	r0, [pc, #44]	; c904 <emmc_read+0x88>
    c8d4:	eb00027e 	bl	d2d4 <printk>
    c8d8:	eb0003ad 	bl	d794 <clean_reboot>
    c8dc:	e1a02004 	mov	r2, r4
    c8e0:	e1a01005 	mov	r1, r5
    c8e4:	e59f001c 	ldr	r0, [pc, #28]	; c908 <emmc_read+0x8c>
    c8e8:	eb000279 	bl	d2d4 <printk>
    c8ec:	e3e00000 	mvn	r0, #0, 0
    c8f0:	eaffffef 	b	c8b4 <emmc_read+0x38>
    c8f4:	0000fc78 	.word	0x0000fc78
    c8f8:	000002dd 	.word	0x000002dd
    c8fc:	0000fdf8 	.word	0x0000fdf8
    c900:	0000facc 	.word	0x0000facc
    c904:	0000e094 	.word	0x0000e094
    c908:	0000fc88 	.word	0x0000fc88

0000c90c <emmc_write>:
    c90c:	e92d4010 	push	{r4, lr}
    c910:	e24dd008 	sub	sp, sp, #8, 0
    c914:	e1a04002 	mov	r4, r2
    c918:	e1a02b82 	lsl	r2, r2, #23
    c91c:	e1a02ba2 	lsr	r2, r2, #23
    c920:	e3520000 	cmp	r2, #0, 0
    c924:	1a000008 	bne	c94c <emmc_write+0x40>
    c928:	e1a03000 	mov	r3, r0
    c92c:	e1a02004 	mov	r2, r4
    c930:	e3a00001 	mov	r0, #1, 0
    c934:	ebfffe5d 	bl	c2b0 <do_data_command>
    c938:	e3500000 	cmp	r0, #0, 0
    c93c:	0a00000a 	beq	c96c <emmc_write+0x60>
    c940:	e1a00004 	mov	r0, r4
    c944:	e28dd008 	add	sp, sp, #8, 0
    c948:	e8bd8010 	pop	{r4, pc}
    c94c:	e59f302c 	ldr	r3, [pc, #44]	; c980 <emmc_write+0x74>
    c950:	e58d3000 	str	r3, [sp]
    c954:	e3a03e2f 	mov	r3, #752	; 0x2f0
    c958:	e59f2024 	ldr	r2, [pc, #36]	; c984 <emmc_write+0x78>
    c95c:	e59f1024 	ldr	r1, [pc, #36]	; c988 <emmc_write+0x7c>
    c960:	e59f0024 	ldr	r0, [pc, #36]	; c98c <emmc_write+0x80>
    c964:	eb00025a 	bl	d2d4 <printk>
    c968:	eb000389 	bl	d794 <clean_reboot>
    c96c:	e1a01000 	mov	r1, r0
    c970:	e59f0018 	ldr	r0, [pc, #24]	; c990 <emmc_write+0x84>
    c974:	eb000256 	bl	d2d4 <printk>
    c978:	e3e00000 	mvn	r0, #0, 0
    c97c:	eafffff0 	b	c944 <emmc_write+0x38>
    c980:	0000fc78 	.word	0x0000fc78
    c984:	0000fe04 	.word	0x0000fe04
    c988:	0000facc 	.word	0x0000facc
    c98c:	0000e094 	.word	0x0000e094
    c990:	0000fcb4 	.word	0x0000fcb4

0000c994 <emmc_init>:
    c994:	e92d4070 	push	{r4, r5, r6, lr}
    c998:	e3a01000 	mov	r1, #0, 0
    c99c:	e3a00022 	mov	r0, #34, 0	; 0x22
    c9a0:	eb0000bf 	bl	cca4 <gpio_set_function>
    c9a4:	e3a01000 	mov	r1, #0, 0
    c9a8:	e3a00023 	mov	r0, #35, 0	; 0x23
    c9ac:	eb0000bc 	bl	cca4 <gpio_set_function>
    c9b0:	e3a01000 	mov	r1, #0, 0
    c9b4:	e3a00024 	mov	r0, #36, 0	; 0x24
    c9b8:	eb0000b9 	bl	cca4 <gpio_set_function>
    c9bc:	e3a01000 	mov	r1, #0, 0
    c9c0:	e3a00025 	mov	r0, #37, 0	; 0x25
    c9c4:	eb0000b6 	bl	cca4 <gpio_set_function>
    c9c8:	e3a01000 	mov	r1, #0, 0
    c9cc:	e3a00026 	mov	r0, #38, 0	; 0x26
    c9d0:	eb0000b3 	bl	cca4 <gpio_set_function>
    c9d4:	e3a01000 	mov	r1, #0, 0
    c9d8:	e3a00027 	mov	r0, #39, 0	; 0x27
    c9dc:	eb0000b0 	bl	cca4 <gpio_set_function>
    c9e0:	e3a01007 	mov	r1, #7, 0
    c9e4:	e3a00030 	mov	r0, #48, 0	; 0x30
    c9e8:	eb0000ad 	bl	cca4 <gpio_set_function>
    c9ec:	e3a01007 	mov	r1, #7, 0
    c9f0:	e3a00031 	mov	r0, #49, 0	; 0x31
    c9f4:	eb0000aa 	bl	cca4 <gpio_set_function>
    c9f8:	e3a01007 	mov	r1, #7, 0
    c9fc:	e3a00032 	mov	r0, #50, 0	; 0x32
    ca00:	eb0000a7 	bl	cca4 <gpio_set_function>
    ca04:	e3a01007 	mov	r1, #7, 0
    ca08:	e3a00033 	mov	r0, #51, 0	; 0x33
    ca0c:	eb0000a4 	bl	cca4 <gpio_set_function>
    ca10:	e3a01007 	mov	r1, #7, 0
    ca14:	e3a00034 	mov	r0, #52, 0	; 0x34
    ca18:	eb0000a1 	bl	cca4 <gpio_set_function>
    ca1c:	e59f305c 	ldr	r3, [pc, #92]	; ca80 <emmc_init+0xec>
    ca20:	e3a00000 	mov	r0, #0, 0
    ca24:	e5830004 	str	r0, [r3, #4]
    ca28:	e583000c 	str	r0, [r3, #12]
    ca2c:	e5c30000 	strb	r0, [r3]
    ca30:	e5830010 	str	r0, [r3, #16]
    ca34:	e5c30024 	strb	r0, [r3, #36]	; 0x24
    ca38:	e1c302b6 	strh	r0, [r3, #38]	; 0x26
    ca3c:	e5830028 	str	r0, [r3, #40]	; 0x28
    ca40:	e583003c 	str	r0, [r3, #60]	; 0x3c
    ca44:	e1a05000 	mov	r5, r0
    ca48:	e1a04000 	mov	r4, r0
    ca4c:	e3550009 	cmp	r5, #9, 0
    ca50:	ca000008 	bgt	ca78 <emmc_init+0xe4>
    ca54:	ebffff41 	bl	c760 <emmc_card_reset>
    ca58:	e2504000 	subs	r4, r0, #0, 0
    ca5c:	1a000005 	bne	ca78 <emmc_init+0xe4>
    ca60:	e3a00064 	mov	r0, #100, 0	; 0x64
    ca64:	eb00039d 	bl	d8e0 <delay_ms>
    ca68:	e59f0014 	ldr	r0, [pc, #20]	; ca84 <emmc_init+0xf0>
    ca6c:	eb000218 	bl	d2d4 <printk>
    ca70:	e2855001 	add	r5, r5, #1, 0
    ca74:	eafffff4 	b	ca4c <emmc_init+0xb8>
    ca78:	e1a00004 	mov	r0, r4
    ca7c:	e8bd8070 	pop	{r4, r5, r6, pc}
    ca80:	00010b80 	.word	0x00010b80
    ca84:	0000fcd0 	.word	0x0000fcd0

0000ca88 <rpi_clock_hz_set>:
    ca88:	e92d4070 	push	{r4, r5, r6, lr}
    ca8c:	e24dd008 	sub	sp, sp, #8, 0
    ca90:	e1a06000 	mov	r6, r0
    ca94:	e1a05001 	mov	r5, r1
    ca98:	e59f3138 	ldr	r3, [pc, #312]	; cbd8 <rpi_clock_hz_set+0x150>
    ca9c:	e5933000 	ldr	r3, [r3]
    caa0:	e3530000 	cmp	r3, #0, 0
    caa4:	0a00002f 	beq	cb68 <rpi_clock_hz_set+0xe0>
    caa8:	e59f4128 	ldr	r4, [pc, #296]	; cbd8 <rpi_clock_hz_set+0x150>
    caac:	e3a02024 	mov	r2, #36, 0	; 0x24
    cab0:	e3a01000 	mov	r1, #0, 0
    cab4:	e5940000 	ldr	r0, [r4]
    cab8:	eb0001d2 	bl	d208 <memset>
    cabc:	e5944000 	ldr	r4, [r4]
    cac0:	e3a03024 	mov	r3, #36, 0	; 0x24
    cac4:	e5843000 	str	r3, [r4]
    cac8:	e3a03000 	mov	r3, #0, 0
    cacc:	e5843004 	str	r3, [r4, #4]
    cad0:	e59f2104 	ldr	r2, [pc, #260]	; cbdc <rpi_clock_hz_set+0x154>
    cad4:	e5842008 	str	r2, [r4, #8]
    cad8:	e3a0200c 	mov	r2, #12, 0
    cadc:	e584200c 	str	r2, [r4, #12]
    cae0:	e5843010 	str	r3, [r4, #16]
    cae4:	e5846014 	str	r6, [r4, #20]
    cae8:	e5845018 	str	r5, [r4, #24]
    caec:	e584301c 	str	r3, [r4, #28]
    caf0:	e5843020 	str	r3, [r4, #32]
    caf4:	e314000f 	tst	r4, #15, 0
    caf8:	1a000020 	bne	cb80 <rpi_clock_hz_set+0xf8>
    cafc:	eb00033c 	bl	d7f4 <dev_barrier>
    cb00:	e59f00d8 	ldr	r0, [pc, #216]	; cbe0 <rpi_clock_hz_set+0x158>
    cb04:	ebffed48 	bl	802c <GET32>
    cb08:	e3500000 	cmp	r0, #0, 0
    cb0c:	bafffffb 	blt	cb00 <rpi_clock_hz_set+0x78>
    cb10:	e3841121 	orr	r1, r4, #1073741832	; 0x40000008
    cb14:	e59f00c8 	ldr	r0, [pc, #200]	; cbe4 <rpi_clock_hz_set+0x15c>
    cb18:	ebffed41 	bl	8024 <PUT32>
    cb1c:	eb000334 	bl	d7f4 <dev_barrier>
    cb20:	eb000333 	bl	d7f4 <dev_barrier>
    cb24:	e59f00b4 	ldr	r0, [pc, #180]	; cbe0 <rpi_clock_hz_set+0x158>
    cb28:	ebffed3f 	bl	802c <GET32>
    cb2c:	e3100101 	tst	r0, #1073741824	; 0x40000000
    cb30:	1afffffb 	bne	cb24 <rpi_clock_hz_set+0x9c>
    cb34:	e59f00ac 	ldr	r0, [pc, #172]	; cbe8 <rpi_clock_hz_set+0x160>
    cb38:	ebffed3b 	bl	802c <GET32>
    cb3c:	e200000f 	and	r0, r0, #15, 0
    cb40:	e3500008 	cmp	r0, #8, 0
    cb44:	1a000015 	bne	cba0 <rpi_clock_hz_set+0x118>
    cb48:	e5943004 	ldr	r3, [r4, #4]
    cb4c:	e3530102 	cmp	r3, #-2147483648	; 0x80000000
    cb50:	1a000018 	bne	cbb8 <rpi_clock_hz_set+0x130>
    cb54:	e59f307c 	ldr	r3, [pc, #124]	; cbd8 <rpi_clock_hz_set+0x150>
    cb58:	e5933000 	ldr	r3, [r3]
    cb5c:	e5930018 	ldr	r0, [r3, #24]
    cb60:	e28dd008 	add	sp, sp, #8, 0
    cb64:	e8bd8070 	pop	{r4, r5, r6, pc}
    cb68:	e3a01010 	mov	r1, #16, 0
    cb6c:	e3a00024 	mov	r0, #36, 0	; 0x24
    cb70:	eb00042e 	bl	dc30 <kmalloc_aligned>
    cb74:	e59f305c 	ldr	r3, [pc, #92]	; cbd8 <rpi_clock_hz_set+0x150>
    cb78:	e5830000 	str	r0, [r3]
    cb7c:	eaffffc9 	b	caa8 <rpi_clock_hz_set+0x20>
    cb80:	e59f3064 	ldr	r3, [pc, #100]	; cbec <rpi_clock_hz_set+0x164>
    cb84:	e58d3000 	str	r3, [sp]
    cb88:	e3a03042 	mov	r3, #66, 0	; 0x42
    cb8c:	e59f205c 	ldr	r2, [pc, #92]	; cbf0 <rpi_clock_hz_set+0x168>
    cb90:	e59f105c 	ldr	r1, [pc, #92]	; cbf4 <rpi_clock_hz_set+0x16c>
    cb94:	e59f005c 	ldr	r0, [pc, #92]	; cbf8 <rpi_clock_hz_set+0x170>
    cb98:	eb0001cd 	bl	d2d4 <printk>
    cb9c:	eb0002fc 	bl	d794 <clean_reboot>
    cba0:	e3a03061 	mov	r3, #97, 0	; 0x61
    cba4:	e59f2050 	ldr	r2, [pc, #80]	; cbfc <rpi_clock_hz_set+0x174>
    cba8:	e59f1044 	ldr	r1, [pc, #68]	; cbf4 <rpi_clock_hz_set+0x16c>
    cbac:	e59f004c 	ldr	r0, [pc, #76]	; cc00 <rpi_clock_hz_set+0x178>
    cbb0:	eb0001c7 	bl	d2d4 <printk>
    cbb4:	eb0002f6 	bl	d794 <clean_reboot>
    cbb8:	e5943004 	ldr	r3, [r4, #4]
    cbbc:	e58d3000 	str	r3, [sp]
    cbc0:	e3a0306e 	mov	r3, #110, 0	; 0x6e
    cbc4:	e59f2038 	ldr	r2, [pc, #56]	; cc04 <rpi_clock_hz_set+0x17c>
    cbc8:	e59f1024 	ldr	r1, [pc, #36]	; cbf4 <rpi_clock_hz_set+0x16c>
    cbcc:	e59f0034 	ldr	r0, [pc, #52]	; cc08 <rpi_clock_hz_set+0x180>
    cbd0:	eb0001bf 	bl	d2d4 <printk>
    cbd4:	eb0002ee 	bl	d794 <clean_reboot>
    cbd8:	00010bd8 	.word	0x00010bd8
    cbdc:	00038002 	.word	0x00038002
    cbe0:	2000b898 	.word	0x2000b898
    cbe4:	2000b8a0 	.word	0x2000b8a0
    cbe8:	2000b880 	.word	0x2000b880
    cbec:	0000fe28 	.word	0x0000fe28
    cbf0:	0000feb4 	.word	0x0000feb4
    cbf4:	0000fe10 	.word	0x0000fe10
    cbf8:	0000e094 	.word	0x0000e094
    cbfc:	0000fec0 	.word	0x0000fec0
    cc00:	0000fe40 	.word	0x0000fe40
    cc04:	0000fecc 	.word	0x0000fecc
    cc08:	0000fe88 	.word	0x0000fe88
	...

0000cc20 <interrupt_vec>:
    cc20:	e59ff02c 	ldr	pc, [pc, #44]	; cc54 <interrupt_asm+0x1c>
    cc24:	e59ff02c 	ldr	pc, [pc, #44]	; cc58 <interrupt_asm+0x20>
    cc28:	e59ff02c 	ldr	pc, [pc, #44]	; cc5c <interrupt_asm+0x24>
    cc2c:	e59ff02c 	ldr	pc, [pc, #44]	; cc60 <interrupt_asm+0x28>
    cc30:	e59ff02c 	ldr	pc, [pc, #44]	; cc64 <interrupt_asm+0x2c>
    cc34:	e59ff02c 	ldr	pc, [pc, #44]	; cc68 <interrupt_asm+0x30>

0000cc38 <interrupt_asm>:
    cc38:	e3a0d409 	mov	sp, #150994944	; 0x9000000
    cc3c:	e24ee004 	sub	lr, lr, #4, 0
    cc40:	e92d5fff 	push	{r0, r1, r2, r3, r4, r5, r6, r7, r8, r9, sl, fp, ip, lr}
    cc44:	e1a0000e 	mov	r0, lr
    cc48:	ebffed5a 	bl	81b8 <interrupt_vector>
    cc4c:	e8bd5fff 	pop	{r0, r1, r2, r3, r4, r5, r6, r7, r8, r9, sl, fp, ip, lr}
    cc50:	e1b0f00e 	movs	pc, lr
    cc54:	0000d910 	.word	0x0000d910
    cc58:	0000d92c 	.word	0x0000d92c
    cc5c:	0000d99c 	.word	0x0000d99c
    cc60:	0000d948 	.word	0x0000d948
    cc64:	0000d964 	.word	0x0000d964
    cc68:	0000cc38 	.word	0x0000cc38

0000cc6c <or32>:
    cc6c:	e92d4070 	push	{r4, r5, r6, lr}
    cc70:	e1a04000 	mov	r4, r0
    cc74:	e1a05001 	mov	r5, r1
    cc78:	eb0002dd 	bl	d7f4 <dev_barrier>
    cc7c:	e1a00004 	mov	r0, r4
    cc80:	ebffece9 	bl	802c <GET32>
    cc84:	e1801005 	orr	r1, r0, r5
    cc88:	e1a00004 	mov	r0, r4
    cc8c:	ebffece4 	bl	8024 <PUT32>
    cc90:	eb0002d7 	bl	d7f4 <dev_barrier>
    cc94:	e8bd8070 	pop	{r4, r5, r6, pc}

0000cc98 <OR32>:
    cc98:	e92d4010 	push	{r4, lr}
    cc9c:	ebfffff2 	bl	cc6c <or32>
    cca0:	e8bd8010 	pop	{r4, pc}

0000cca4 <gpio_set_function>:
    cca4:	e350002f 	cmp	r0, #47, 0	; 0x2f
    cca8:	1350001f 	cmpne	r0, #31, 0
    ccac:	812fff1e 	bxhi	lr
    ccb0:	e92d41f0 	push	{r4, r5, r6, r7, r8, lr}
    ccb4:	e1a04000 	mov	r4, r0
    ccb8:	e1a05001 	mov	r5, r1
    ccbc:	e3510007 	cmp	r1, #7, 0
    ccc0:	88bd81f0 	pophi	{r4, r5, r6, r7, r8, pc}
    ccc4:	e59f603c 	ldr	r6, [pc, #60]	; cd08 <gpio_set_function+0x64>
    ccc8:	e0863096 	umull	r3, r6, r6, r0
    cccc:	e1a061a6 	lsr	r6, r6, #3
    ccd0:	e2867302 	add	r7, r6, #134217728	; 0x8000000
    ccd4:	e2877702 	add	r7, r7, #524288	; 0x80000
    ccd8:	e1a07107 	lsl	r7, r7, #2
    ccdc:	e1a00007 	mov	r0, r7
    cce0:	ebffecd1 	bl	802c <GET32>
    cce4:	e0866106 	add	r6, r6, r6, lsl #2
    cce8:	e0444086 	sub	r4, r4, r6, lsl #1
    ccec:	e0844084 	add	r4, r4, r4, lsl #1
    ccf0:	e3a01007 	mov	r1, #7, 0
    ccf4:	e1c01411 	bic	r1, r0, r1, lsl r4
    ccf8:	e1811415 	orr	r1, r1, r5, lsl r4
    ccfc:	e1a00007 	mov	r0, r7
    cd00:	ebffecc7 	bl	8024 <PUT32>
    cd04:	e8bd81f0 	pop	{r4, r5, r6, r7, r8, pc}
    cd08:	cccccccd 	.word	0xcccccccd

0000cd0c <gpio_set_output>:
    cd0c:	e92d4010 	push	{r4, lr}
    cd10:	e3a01001 	mov	r1, #1, 0
    cd14:	ebffffe2 	bl	cca4 <gpio_set_function>
    cd18:	e8bd8010 	pop	{r4, pc}

0000cd1c <gpio_set_on>:
    cd1c:	e350002f 	cmp	r0, #47, 0	; 0x2f
    cd20:	1350001f 	cmpne	r0, #31, 0
    cd24:	812fff1e 	bxhi	lr
    cd28:	e92d4010 	push	{r4, lr}
    cd2c:	e3a01001 	mov	r1, #1, 0
    cd30:	e1a01011 	lsl	r1, r1, r0
    cd34:	e59f0004 	ldr	r0, [pc, #4]	; cd40 <gpio_set_on+0x24>
    cd38:	ebffecb9 	bl	8024 <PUT32>
    cd3c:	e8bd8010 	pop	{r4, pc}
    cd40:	2020001c 	.word	0x2020001c

0000cd44 <gpio_set_off>:
    cd44:	e350002f 	cmp	r0, #47, 0	; 0x2f
    cd48:	1350001f 	cmpne	r0, #31, 0
    cd4c:	812fff1e 	bxhi	lr
    cd50:	e92d4010 	push	{r4, lr}
    cd54:	e3a01001 	mov	r1, #1, 0
    cd58:	e1a01011 	lsl	r1, r1, r0
    cd5c:	e59f0004 	ldr	r0, [pc, #4]	; cd68 <gpio_set_off+0x24>
    cd60:	ebffecaf 	bl	8024 <PUT32>
    cd64:	e8bd8010 	pop	{r4, pc}
    cd68:	20200028 	.word	0x20200028

0000cd6c <gpio_write>:
    cd6c:	e350002f 	cmp	r0, #47, 0	; 0x2f
    cd70:	1350001f 	cmpne	r0, #31, 0
    cd74:	812fff1e 	bxhi	lr
    cd78:	e92d4010 	push	{r4, lr}
    cd7c:	e3510000 	cmp	r1, #0, 0
    cd80:	0a000001 	beq	cd8c <gpio_write+0x20>
    cd84:	ebffffe4 	bl	cd1c <gpio_set_on>
    cd88:	e8bd8010 	pop	{r4, pc}
    cd8c:	ebffffec 	bl	cd44 <gpio_set_off>
    cd90:	e8bd8010 	pop	{r4, pc}

0000cd94 <gpio_set_input>:
    cd94:	e92d4010 	push	{r4, lr}
    cd98:	e3a01000 	mov	r1, #0, 0
    cd9c:	ebffffc0 	bl	cca4 <gpio_set_function>
    cda0:	e8bd8010 	pop	{r4, pc}

0000cda4 <gpio_read>:
    cda4:	e350002f 	cmp	r0, #47, 0	; 0x2f
    cda8:	1350001f 	cmpne	r0, #31, 0
    cdac:	9a000001 	bls	cdb8 <gpio_read+0x14>
    cdb0:	e3e00000 	mvn	r0, #0, 0
    cdb4:	e12fff1e 	bx	lr
    cdb8:	e92d4010 	push	{r4, lr}
    cdbc:	e1a04000 	mov	r4, r0
    cdc0:	e59f001c 	ldr	r0, [pc, #28]	; cde4 <gpio_read+0x40>
    cdc4:	ebffec98 	bl	802c <GET32>
    cdc8:	e3a03001 	mov	r3, #1, 0
    cdcc:	e0103413 	ands	r3, r0, r3, lsl r4
    cdd0:	0a000001 	beq	cddc <gpio_read+0x38>
    cdd4:	e3a00001 	mov	r0, #1, 0
    cdd8:	e8bd8010 	pop	{r4, pc}
    cddc:	e3a00000 	mov	r0, #0, 0
    cde0:	e8bd8010 	pop	{r4, pc}
    cde4:	20200034 	.word	0x20200034

0000cde8 <is_gpio_int>:
    cde8:	e3500003 	cmp	r0, #3, 0
    cdec:	8a000007 	bhi	ce10 <is_gpio_int+0x28>
    cdf0:	e92d4010 	push	{r4, lr}
    cdf4:	e2800011 	add	r0, r0, #17, 0
    cdf8:	e3a01001 	mov	r1, #1, 0
    cdfc:	e1a01011 	lsl	r1, r1, r0
    ce00:	e59f0010 	ldr	r0, [pc, #16]	; ce18 <is_gpio_int+0x30>
    ce04:	ebffffa3 	bl	cc98 <OR32>
    ce08:	e3a00000 	mov	r0, #0, 0
    ce0c:	e8bd8010 	pop	{r4, pc}
    ce10:	e3e00000 	mvn	r0, #0, 0
    ce14:	e12fff1e 	bx	lr
    ce18:	2000b214 	.word	0x2000b214

0000ce1c <gpio_int_rising_edge>:
    ce1c:	e350002f 	cmp	r0, #47, 0	; 0x2f
    ce20:	1350001f 	cmpne	r0, #31, 0
    ce24:	812fff1e 	bxhi	lr
    ce28:	e92d4070 	push	{r4, r5, r6, lr}
    ce2c:	e1a04000 	mov	r4, r0
    ce30:	e59f5018 	ldr	r5, [pc, #24]	; ce50 <gpio_int_rising_edge+0x34>
    ce34:	e1a00005 	mov	r0, r5
    ce38:	ebffec7b 	bl	802c <GET32>
    ce3c:	e3a01001 	mov	r1, #1, 0
    ce40:	e1801411 	orr	r1, r0, r1, lsl r4
    ce44:	e1a00005 	mov	r0, r5
    ce48:	ebffec75 	bl	8024 <PUT32>
    ce4c:	e8bd8070 	pop	{r4, r5, r6, pc}
    ce50:	2020004c 	.word	0x2020004c

0000ce54 <gpio_int_falling_edge>:
    ce54:	e350002f 	cmp	r0, #47, 0	; 0x2f
    ce58:	1350001f 	cmpne	r0, #31, 0
    ce5c:	812fff1e 	bxhi	lr
    ce60:	e92d4070 	push	{r4, r5, r6, lr}
    ce64:	e1a04000 	mov	r4, r0
    ce68:	e59f5018 	ldr	r5, [pc, #24]	; ce88 <gpio_int_falling_edge+0x34>
    ce6c:	e1a00005 	mov	r0, r5
    ce70:	ebffec6d 	bl	802c <GET32>
    ce74:	e3a01001 	mov	r1, #1, 0
    ce78:	e1801411 	orr	r1, r0, r1, lsl r4
    ce7c:	e1a00005 	mov	r0, r5
    ce80:	ebffec67 	bl	8024 <PUT32>
    ce84:	e8bd8070 	pop	{r4, r5, r6, pc}
    ce88:	20200058 	.word	0x20200058

0000ce8c <gpio_event_detected>:
    ce8c:	e350002f 	cmp	r0, #47, 0	; 0x2f
    ce90:	1350001f 	cmpne	r0, #31, 0
    ce94:	9a000001 	bls	cea0 <gpio_event_detected+0x14>
    ce98:	e3e00000 	mvn	r0, #0, 0
    ce9c:	e12fff1e 	bx	lr
    cea0:	e92d4010 	push	{r4, lr}
    cea4:	e1a04000 	mov	r4, r0
    cea8:	e59f001c 	ldr	r0, [pc, #28]	; cecc <gpio_event_detected+0x40>
    ceac:	ebffec5e 	bl	802c <GET32>
    ceb0:	e3a03001 	mov	r3, #1, 0
    ceb4:	e0103413 	ands	r3, r0, r3, lsl r4
    ceb8:	0a000001 	beq	cec4 <gpio_event_detected+0x38>
    cebc:	e3a00001 	mov	r0, #1, 0
    cec0:	e8bd8010 	pop	{r4, pc}
    cec4:	e3a00000 	mov	r0, #0, 0
    cec8:	e8bd8010 	pop	{r4, pc}
    cecc:	20200040 	.word	0x20200040

0000ced0 <gpio_event_clear>:
    ced0:	e350002f 	cmp	r0, #47, 0	; 0x2f
    ced4:	1350001f 	cmpne	r0, #31, 0
    ced8:	812fff1e 	bxhi	lr
    cedc:	e92d4070 	push	{r4, r5, r6, lr}
    cee0:	e1a04000 	mov	r4, r0
    cee4:	e59f5018 	ldr	r5, [pc, #24]	; cf04 <gpio_event_clear+0x34>
    cee8:	e1a00005 	mov	r0, r5
    ceec:	ebffec4e 	bl	802c <GET32>
    cef0:	e3a01001 	mov	r1, #1, 0
    cef4:	e1801411 	orr	r1, r0, r1, lsl r4
    cef8:	e1a00005 	mov	r0, r5
    cefc:	ebffec48 	bl	8024 <PUT32>
    cf00:	e8bd8070 	pop	{r4, r5, r6, pc}
    cf04:	20200040 	.word	0x20200040

0000cf08 <uart_init>:
    cf08:	e92d4070 	push	{r4, r5, r6, lr}
    cf0c:	e3a01a12 	mov	r1, #73728	; 0x12000
    cf10:	e59f00d0 	ldr	r0, [pc, #208]	; cfe8 <uart_init+0xe0>
    cf14:	ebffec42 	bl	8024 <PUT32>
    cf18:	eb000235 	bl	d7f4 <dev_barrier>
    cf1c:	e59f40c8 	ldr	r4, [pc, #200]	; cfec <uart_init+0xe4>
    cf20:	e1a00004 	mov	r0, r4
    cf24:	ebffec40 	bl	802c <GET32>
    cf28:	e3801001 	orr	r1, r0, #1, 0
    cf2c:	e1a00004 	mov	r0, r4
    cf30:	ebffec3b 	bl	8024 <PUT32>
    cf34:	eb00022e 	bl	d7f4 <dev_barrier>
    cf38:	e284405c 	add	r4, r4, #92, 0	; 0x5c
    cf3c:	e1a00004 	mov	r0, r4
    cf40:	ebffec39 	bl	802c <GET32>
    cf44:	e3a01000 	mov	r1, #0, 0
    cf48:	e1a00004 	mov	r0, r4
    cf4c:	ebffec34 	bl	8024 <PUT32>
    cf50:	e59f5098 	ldr	r5, [pc, #152]	; cff0 <uart_init+0xe8>
    cf54:	e1a00005 	mov	r0, r5
    cf58:	ebffec33 	bl	802c <GET32>
    cf5c:	e3a01000 	mov	r1, #0, 0
    cf60:	e1a00005 	mov	r0, r5
    cf64:	ebffec2e 	bl	8024 <PUT32>
    cf68:	e1a00004 	mov	r0, r4
    cf6c:	ebffec2e 	bl	802c <GET32>
    cf70:	e2001003 	and	r1, r0, #3, 0
    cf74:	e1a00004 	mov	r0, r4
    cf78:	ebffec29 	bl	8024 <PUT32>
    cf7c:	e2855004 	add	r5, r5, #4, 0
    cf80:	e1a00005 	mov	r0, r5
    cf84:	ebffec28 	bl	802c <GET32>
    cf88:	e3801006 	orr	r1, r0, #6, 0
    cf8c:	e1a00005 	mov	r0, r5
    cf90:	ebffec23 	bl	8024 <PUT32>
    cf94:	e2855004 	add	r5, r5, #4, 0
    cf98:	e1a00005 	mov	r0, r5
    cf9c:	ebffec22 	bl	802c <GET32>
    cfa0:	e3801003 	orr	r1, r0, #3, 0
    cfa4:	e1a00005 	mov	r0, r5
    cfa8:	ebffec1d 	bl	8024 <PUT32>
    cfac:	e285501c 	add	r5, r5, #28, 0
    cfb0:	e1a00005 	mov	r0, r5
    cfb4:	ebffec1c 	bl	802c <GET32>
    cfb8:	e1a01820 	lsr	r1, r0, #16
    cfbc:	e1a01801 	lsl	r1, r1, #16
    cfc0:	e3811f43 	orr	r1, r1, #268	; 0x10c
    cfc4:	e3811002 	orr	r1, r1, #2, 0
    cfc8:	e1a00005 	mov	r0, r5
    cfcc:	ebffec14 	bl	8024 <PUT32>
    cfd0:	e1a00004 	mov	r0, r4
    cfd4:	ebffec14 	bl	802c <GET32>
    cfd8:	e3801003 	orr	r1, r0, #3, 0
    cfdc:	e1a00004 	mov	r0, r4
    cfe0:	ebffec0f 	bl	8024 <PUT32>
    cfe4:	e8bd8070 	pop	{r4, r5, r6, pc}
    cfe8:	20200004 	.word	0x20200004
    cfec:	20215004 	.word	0x20215004
    cff0:	20215044 	.word	0x20215044

0000cff4 <uart_get8>:
    cff4:	e52de004 	push	{lr}		; (str lr, [sp, #-4]!)
    cff8:	e24dd00c 	sub	sp, sp, #12, 0
    cffc:	e59f0024 	ldr	r0, [pc, #36]	; d028 <uart_get8+0x34>
    d000:	ebffec09 	bl	802c <GET32>
    d004:	e58d0004 	str	r0, [sp, #4]
    d008:	e59d3004 	ldr	r3, [sp, #4]
    d00c:	e3130001 	tst	r3, #1, 0
    d010:	0afffff9 	beq	cffc <uart_get8+0x8>
    d014:	e59f0010 	ldr	r0, [pc, #16]	; d02c <uart_get8+0x38>
    d018:	ebffec03 	bl	802c <GET32>
    d01c:	e6ef0070 	uxtb	r0, r0
    d020:	e28dd00c 	add	sp, sp, #12, 0
    d024:	e49df004 	pop	{pc}		; (ldr pc, [sp], #4)
    d028:	20215064 	.word	0x20215064
    d02c:	20215040 	.word	0x20215040

0000d030 <uart_can_put8>:
    d030:	e92d4010 	push	{r4, lr}
    d034:	e59f0010 	ldr	r0, [pc, #16]	; d04c <uart_can_put8+0x1c>
    d038:	ebffebfb 	bl	802c <GET32>
    d03c:	e3100020 	tst	r0, #32, 0
    d040:	13a00001 	movne	r0, #1, 0
    d044:	03a00000 	moveq	r0, #0, 0
    d048:	e8bd8010 	pop	{r4, pc}
    d04c:	20215054 	.word	0x20215054

0000d050 <uart_put8>:
    d050:	e92d4070 	push	{r4, r5, r6, lr}
    d054:	e1a04000 	mov	r4, r0
    d058:	ebfffff4 	bl	d030 <uart_can_put8>
    d05c:	e3500000 	cmp	r0, #0, 0
    d060:	0afffffc 	beq	d058 <uart_put8+0x8>
    d064:	e59f501c 	ldr	r5, [pc, #28]	; d088 <uart_put8+0x38>
    d068:	e1a00005 	mov	r0, r5
    d06c:	ebffebee 	bl	802c <GET32>
    d070:	e3c010ff 	bic	r1, r0, #255, 0	; 0xff
    d074:	e1841001 	orr	r1, r4, r1
    d078:	e1a00005 	mov	r0, r5
    d07c:	ebffebe8 	bl	8024 <PUT32>
    d080:	e3a00000 	mov	r0, #0, 0
    d084:	e8bd8070 	pop	{r4, r5, r6, pc}
    d088:	20215040 	.word	0x20215040

0000d08c <uart_has_data>:
    d08c:	e92d4010 	push	{r4, lr}
    d090:	e59f0008 	ldr	r0, [pc, #8]	; d0a0 <uart_has_data+0x14>
    d094:	ebffebe4 	bl	802c <GET32>
    d098:	e2000001 	and	r0, r0, #1, 0
    d09c:	e8bd8010 	pop	{r4, pc}
    d0a0:	20215054 	.word	0x20215054

0000d0a4 <uart_get8_async>:
    d0a4:	e92d4010 	push	{r4, lr}
    d0a8:	ebfffff7 	bl	d08c <uart_has_data>
    d0ac:	e3500000 	cmp	r0, #0, 0
    d0b0:	0a000001 	beq	d0bc <uart_get8_async+0x18>
    d0b4:	ebffffce 	bl	cff4 <uart_get8>
    d0b8:	e8bd8010 	pop	{r4, pc}
    d0bc:	e3e00000 	mvn	r0, #0, 0
    d0c0:	e8bd8010 	pop	{r4, pc}

0000d0c4 <uart_tx_is_empty>:
    d0c4:	e92d4010 	push	{r4, lr}
    d0c8:	e59f0010 	ldr	r0, [pc, #16]	; d0e0 <uart_tx_is_empty+0x1c>
    d0cc:	ebffebd6 	bl	802c <GET32>
    d0d0:	e3100c01 	tst	r0, #256	; 0x100
    d0d4:	13a00001 	movne	r0, #1, 0
    d0d8:	03a00000 	moveq	r0, #0, 0
    d0dc:	e8bd8010 	pop	{r4, pc}
    d0e0:	20215064 	.word	0x20215064

0000d0e4 <uart_flush_tx>:
    d0e4:	e52de004 	push	{lr}		; (str lr, [sp, #-4]!)
    d0e8:	e24dd00c 	sub	sp, sp, #12, 0
    d0ec:	e59f0018 	ldr	r0, [pc, #24]	; d10c <uart_flush_tx+0x28>
    d0f0:	ebffebcd 	bl	802c <GET32>
    d0f4:	e58d0004 	str	r0, [sp, #4]
    d0f8:	e59d3004 	ldr	r3, [sp, #4]
    d0fc:	e3130c02 	tst	r3, #512	; 0x200
    d100:	0afffff9 	beq	d0ec <uart_flush_tx+0x8>
    d104:	e28dd00c 	add	sp, sp, #12, 0
    d108:	e49df004 	pop	{pc}		; (ldr pc, [sp], #4)
    d10c:	20215064 	.word	0x20215064

0000d110 <uart_disable>:
    d110:	e92d4010 	push	{r4, lr}
    d114:	ebfffff2 	bl	d0e4 <uart_flush_tx>
    d118:	e59f4014 	ldr	r4, [pc, #20]	; d134 <uart_disable+0x24>
    d11c:	e1a00004 	mov	r0, r4
    d120:	ebffebc1 	bl	802c <GET32>
    d124:	e3a01000 	mov	r1, #0, 0
    d128:	e1a00004 	mov	r0, r4
    d12c:	ebffebbc 	bl	8024 <PUT32>
    d130:	e8bd8010 	pop	{r4, pc}
    d134:	20215060 	.word	0x20215060

0000d138 <our_crc32_inc>:
    d138:	e1e02002 	mvn	r2, r2
    d13c:	e241c001 	sub	ip, r1, #1, 0
    d140:	e3510000 	cmp	r1, #0, 0
    d144:	0a000007 	beq	d168 <our_crc32_inc+0x30>
    d148:	e4d03001 	ldrb	r3, [r0], #1
    d14c:	e0233002 	eor	r3, r3, r2
    d150:	e6ef3073 	uxtb	r3, r3
    d154:	e59f1014 	ldr	r1, [pc, #20]	; d170 <our_crc32_inc+0x38>
    d158:	e7913103 	ldr	r3, [r1, r3, lsl #2]
    d15c:	e0232422 	eor	r2, r3, r2, lsr #8
    d160:	e1a0100c 	mov	r1, ip
    d164:	eafffff4 	b	d13c <our_crc32_inc+0x4>
    d168:	e1e00002 	mvn	r0, r2
    d16c:	e12fff1e 	bx	lr
    d170:	0000fed8 	.word	0x0000fed8

0000d174 <our_crc32>:
    d174:	e92d4010 	push	{r4, lr}
    d178:	e3a02000 	mov	r2, #0, 0
    d17c:	ebffffed 	bl	d138 <our_crc32_inc>
    d180:	e8bd8010 	pop	{r4, pc}

0000d184 <memcmp>:
    d184:	e52de004 	push	{lr}		; (str lr, [sp, #-4]!)
    d188:	e1a0e000 	mov	lr, r0
    d18c:	e3a03000 	mov	r3, #0, 0
    d190:	e1530002 	cmp	r3, r2
    d194:	2a000005 	bcs	d1b0 <memcmp+0x2c>
    d198:	e7dec003 	ldrb	ip, [lr, r3]
    d19c:	e7d10003 	ldrb	r0, [r1, r3]
    d1a0:	e05c0000 	subs	r0, ip, r0
    d1a4:	149df004 	popne	{pc}		; (ldrne pc, [sp], #4)
    d1a8:	e2833001 	add	r3, r3, #1, 0
    d1ac:	eafffff7 	b	d190 <memcmp+0xc>
    d1b0:	e3a00000 	mov	r0, #0, 0
    d1b4:	e49df004 	pop	{pc}		; (ldr pc, [sp], #4)

0000d1b8 <memcpy>:
    d1b8:	e3a03000 	mov	r3, #0, 0
    d1bc:	e1530002 	cmp	r3, r2
    d1c0:	212fff1e 	bxcs	lr
    d1c4:	e7d1c003 	ldrb	ip, [r1, r3]
    d1c8:	e7c0c003 	strb	ip, [r0, r3]
    d1cc:	e2833001 	add	r3, r3, #1, 0
    d1d0:	eafffff9 	b	d1bc <memcpy+0x4>

0000d1d4 <memcpy_end>:
    d1d4:	e12fff1e 	bx	lr

0000d1d8 <memiszero>:
    d1d8:	e3a03000 	mov	r3, #0, 0
    d1dc:	e1530001 	cmp	r3, r1
    d1e0:	2a000004 	bcs	d1f8 <memiszero+0x20>
    d1e4:	e7d02003 	ldrb	r2, [r0, r3]
    d1e8:	e3520000 	cmp	r2, #0, 0
    d1ec:	1a000003 	bne	d200 <memiszero+0x28>
    d1f0:	e2833001 	add	r3, r3, #1, 0
    d1f4:	eafffff8 	b	d1dc <memiszero+0x4>
    d1f8:	e3a00001 	mov	r0, #1, 0
    d1fc:	e12fff1e 	bx	lr
    d200:	e3a00000 	mov	r0, #0, 0
    d204:	e12fff1e 	bx	lr

0000d208 <memset>:
    d208:	e92d4030 	push	{r4, r5, lr}
    d20c:	e24dd00c 	sub	sp, sp, #12, 0
    d210:	e3520000 	cmp	r2, #0, 0
    d214:	0a00000b 	beq	d248 <memset+0x40>
    d218:	e3510000 	cmp	r1, #0, 0
    d21c:	1a000007 	bne	d240 <memset+0x38>
    d220:	e3100007 	tst	r0, #7, 0
    d224:	1a000001 	bne	d230 <memset+0x28>
    d228:	e3120007 	tst	r2, #7, 0
    d22c:	0a00000d 	beq	d268 <memset+0x60>
    d230:	e3100003 	tst	r0, #3, 0
    d234:	1a000001 	bne	d240 <memset+0x38>
    d238:	e3120003 	tst	r2, #3, 0
    d23c:	0a000013 	beq	d290 <memset+0x88>
    d240:	e0802002 	add	r2, r0, r2
    d244:	ea00001a 	b	d2b4 <memset+0xac>
    d248:	e59f3074 	ldr	r3, [pc, #116]	; d2c4 <memset+0xbc>
    d24c:	e58d3000 	str	r3, [sp]
    d250:	e3a03008 	mov	r3, #8, 0
    d254:	e59f206c 	ldr	r2, [pc, #108]	; d2c8 <memset+0xc0>
    d258:	e59f106c 	ldr	r1, [pc, #108]	; d2cc <memset+0xc4>
    d25c:	e59f006c 	ldr	r0, [pc, #108]	; d2d0 <memset+0xc8>
    d260:	eb00001b 	bl	d2d4 <printk>
    d264:	eb00014a 	bl	d794 <clean_reboot>
    d268:	e1a021a2 	lsr	r2, r2, #3
    d26c:	ea000003 	b	d280 <memset+0x78>
    d270:	e1a04001 	mov	r4, r1
    d274:	e1a05fc1 	asr	r5, r1, #31
    d278:	e0c040f8 	strd	r4, [r0], #8
    d27c:	e1a02003 	mov	r2, r3
    d280:	e2423001 	sub	r3, r2, #1, 0
    d284:	e3520000 	cmp	r2, #0, 0
    d288:	1afffff8 	bne	d270 <memset+0x68>
    d28c:	ea00000a 	b	d2bc <memset+0xb4>
    d290:	e1a02122 	lsr	r2, r2, #2
    d294:	ea000001 	b	d2a0 <memset+0x98>
    d298:	e4801004 	str	r1, [r0], #4
    d29c:	e1a02003 	mov	r2, r3
    d2a0:	e2423001 	sub	r3, r2, #1, 0
    d2a4:	e3520000 	cmp	r2, #0, 0
    d2a8:	1afffffa 	bne	d298 <memset+0x90>
    d2ac:	ea000002 	b	d2bc <memset+0xb4>
    d2b0:	e4c01001 	strb	r1, [r0], #1
    d2b4:	e1500002 	cmp	r0, r2
    d2b8:	3afffffc 	bcc	d2b0 <memset+0xa8>
    d2bc:	e28dd00c 	add	sp, sp, #12, 0
    d2c0:	e8bd8030 	pop	{r4, r5, pc}
    d2c4:	000102e8 	.word	0x000102e8
    d2c8:	000102ec 	.word	0x000102ec
    d2cc:	000102d8 	.word	0x000102d8
    d2d0:	0000e094 	.word	0x0000e094

0000d2d4 <printk>:
    d2d4:	e92d000f 	push	{r0, r1, r2, r3}
    d2d8:	e52de004 	push	{lr}		; (str lr, [sp, #-4]!)
    d2dc:	e24dd00c 	sub	sp, sp, #12, 0
    d2e0:	e28d1014 	add	r1, sp, #20, 0
    d2e4:	e58d1004 	str	r1, [sp, #4]
    d2e8:	e59d0010 	ldr	r0, [sp, #16]
    d2ec:	eb000047 	bl	d410 <vprintk>
    d2f0:	e28dd00c 	add	sp, sp, #12, 0
    d2f4:	e49de004 	pop	{lr}		; (ldr lr, [sp], #4)
    d2f8:	e28dd010 	add	sp, sp, #16, 0
    d2fc:	e12fff1e 	bx	lr

0000d300 <emit_val>:
    d300:	e92d4010 	push	{r4, lr}
    d304:	e24dd030 	sub	sp, sp, #48, 0	; 0x30
    d308:	e350000a 	cmp	r0, #10, 0
    d30c:	0a000014 	beq	d364 <emit_val+0x64>
    d310:	e3500010 	cmp	r0, #16, 0
    d314:	0a000022 	beq	d3a4 <emit_val+0xa4>
    d318:	e3500002 	cmp	r0, #2, 0
    d31c:	0a000006 	beq	d33c <emit_val+0x3c>
    d320:	e58d0000 	str	r0, [sp]
    d324:	e3a03019 	mov	r3, #25, 0
    d328:	e59f20c0 	ldr	r2, [pc, #192]	; d3f0 <emit_val+0xf0>
    d32c:	e59f10c0 	ldr	r1, [pc, #192]	; d3f4 <emit_val+0xf4>
    d330:	e59f00c0 	ldr	r0, [pc, #192]	; d3f8 <emit_val+0xf8>
    d334:	ebffffe6 	bl	d2d4 <printk>
    d338:	eb000115 	bl	d794 <clean_reboot>
    d33c:	e28d400c 	add	r4, sp, #12, 0
    d340:	e2012001 	and	r2, r1, #1, 0
    d344:	e59f00b0 	ldr	r0, [pc, #176]	; d3fc <emit_val+0xfc>
    d348:	e7d02002 	ldrb	r2, [r0, r2]
    d34c:	e5c42000 	strb	r2, [r4]
    d350:	e2844001 	add	r4, r4, #1, 0
    d354:	e3510001 	cmp	r1, #1, 0
    d358:	e1a010a1 	lsr	r1, r1, #1
    d35c:	8afffff7 	bhi	d340 <emit_val+0x40>
    d360:	ea00001d 	b	d3dc <emit_val+0xdc>
    d364:	e28d400c 	add	r4, sp, #12, 0
    d368:	e59f3090 	ldr	r3, [pc, #144]	; d400 <emit_val+0x100>
    d36c:	e0832193 	umull	r2, r3, r3, r1
    d370:	e1a031a3 	lsr	r3, r3, #3
    d374:	e1a00003 	mov	r0, r3
    d378:	e0833103 	add	r3, r3, r3, lsl #2
    d37c:	e0413083 	sub	r3, r1, r3, lsl #1
    d380:	e59fc07c 	ldr	ip, [pc, #124]	; d404 <emit_val+0x104>
    d384:	e7dcc003 	ldrb	ip, [ip, r3]
    d388:	e5c4c000 	strb	ip, [r4]
    d38c:	e2844001 	add	r4, r4, #1, 0
    d390:	e1a03001 	mov	r3, r1
    d394:	e1a01000 	mov	r1, r0
    d398:	e3530009 	cmp	r3, #9, 0
    d39c:	8afffff1 	bhi	d368 <emit_val+0x68>
    d3a0:	ea00000d 	b	d3dc <emit_val+0xdc>
    d3a4:	e28d400c 	add	r4, sp, #12, 0
    d3a8:	e201200f 	and	r2, r1, #15, 0
    d3ac:	e59f0054 	ldr	r0, [pc, #84]	; d408 <emit_val+0x108>
    d3b0:	e7d02002 	ldrb	r2, [r0, r2]
    d3b4:	e5c42000 	strb	r2, [r4]
    d3b8:	e2844001 	add	r4, r4, #1, 0
    d3bc:	e351000f 	cmp	r1, #15, 0
    d3c0:	e1a01221 	lsr	r1, r1, #4
    d3c4:	8afffff7 	bhi	d3a8 <emit_val+0xa8>
    d3c8:	ea000003 	b	d3dc <emit_val+0xdc>
    d3cc:	e59f3038 	ldr	r3, [pc, #56]	; d40c <emit_val+0x10c>
    d3d0:	e5933000 	ldr	r3, [r3]
    d3d4:	e5740001 	ldrb	r0, [r4, #-1]!
    d3d8:	e12fff33 	blx	r3
    d3dc:	e28d300c 	add	r3, sp, #12, 0
    d3e0:	e1540003 	cmp	r4, r3
    d3e4:	8afffff8 	bhi	d3cc <emit_val+0xcc>
    d3e8:	e28dd030 	add	sp, sp, #48, 0	; 0x30
    d3ec:	e8bd8010 	pop	{r4, pc}
    d3f0:	000103ac 	.word	0x000103ac
    d3f4:	000102f4 	.word	0x000102f4
    d3f8:	00010304 	.word	0x00010304
    d3fc:	00010328 	.word	0x00010328
    d400:	cccccccd 	.word	0xcccccccd
    d404:	0001032c 	.word	0x0001032c
    d408:	00010338 	.word	0x00010338
    d40c:	000108a8 	.word	0x000108a8

0000d410 <vprintk>:
    d410:	e92d4030 	push	{r4, r5, lr}
    d414:	e24dd014 	sub	sp, sp, #20, 0
    d418:	e1a04000 	mov	r4, r0
    d41c:	e58d100c 	str	r1, [sp, #12]
    d420:	ea000003 	b	d434 <vprintk+0x24>
    d424:	e59f3288 	ldr	r3, [pc, #648]	; d6b4 <vprintk+0x2a4>
    d428:	e5933000 	ldr	r3, [r3]
    d42c:	e12fff33 	blx	r3
    d430:	e2844001 	add	r4, r4, #1, 0
    d434:	e5d40000 	ldrb	r0, [r4]
    d438:	e3500000 	cmp	r0, #0, 0
    d43c:	0a00009a 	beq	d6ac <vprintk+0x29c>
    d440:	e3500025 	cmp	r0, #37, 0	; 0x25
    d444:	1afffff6 	bne	d424 <vprintk+0x14>
    d448:	e2845001 	add	r5, r4, #1, 0
    d44c:	e5d42001 	ldrb	r2, [r4, #1]
    d450:	e2423062 	sub	r3, r2, #98, 0	; 0x62
    d454:	e3530016 	cmp	r3, #22, 0
    d458:	979ff103 	ldrls	pc, [pc, r3, lsl #2]
    d45c:	ea00008b 	b	d690 <vprintk+0x280>
    d460:	0000d4bc 	.word	0x0000d4bc
    d464:	0000d4fc 	.word	0x0000d4fc
    d468:	0000d614 	.word	0x0000d614
    d46c:	0000d690 	.word	0x0000d690
    d470:	0000d690 	.word	0x0000d690
    d474:	0000d690 	.word	0x0000d690
    d478:	0000d690 	.word	0x0000d690
    d47c:	0000d690 	.word	0x0000d690
    d480:	0000d690 	.word	0x0000d690
    d484:	0000d690 	.word	0x0000d690
    d488:	0000d520 	.word	0x0000d520
    d48c:	0000d690 	.word	0x0000d690
    d490:	0000d690 	.word	0x0000d690
    d494:	0000d690 	.word	0x0000d690
    d498:	0000d5d8 	.word	0x0000d5d8
    d49c:	0000d690 	.word	0x0000d690
    d4a0:	0000d690 	.word	0x0000d690
    d4a4:	0000d658 	.word	0x0000d658
    d4a8:	0000d690 	.word	0x0000d690
    d4ac:	0000d4dc 	.word	0x0000d4dc
    d4b0:	0000d690 	.word	0x0000d690
    d4b4:	0000d690 	.word	0x0000d690
    d4b8:	0000d5d8 	.word	0x0000d5d8
    d4bc:	e59d300c 	ldr	r3, [sp, #12]
    d4c0:	e2832004 	add	r2, r3, #4, 0
    d4c4:	e58d200c 	str	r2, [sp, #12]
    d4c8:	e5931000 	ldr	r1, [r3]
    d4cc:	e3a00002 	mov	r0, #2, 0
    d4d0:	ebffff8a 	bl	d300 <emit_val>
    d4d4:	e1a04005 	mov	r4, r5
    d4d8:	eaffffd4 	b	d430 <vprintk+0x20>
    d4dc:	e59d300c 	ldr	r3, [sp, #12]
    d4e0:	e2832004 	add	r2, r3, #4, 0
    d4e4:	e58d200c 	str	r2, [sp, #12]
    d4e8:	e5931000 	ldr	r1, [r3]
    d4ec:	e3a0000a 	mov	r0, #10, 0
    d4f0:	ebffff82 	bl	d300 <emit_val>
    d4f4:	e1a04005 	mov	r4, r5
    d4f8:	eaffffcc 	b	d430 <vprintk+0x20>
    d4fc:	e59f31b0 	ldr	r3, [pc, #432]	; d6b4 <vprintk+0x2a4>
    d500:	e5932000 	ldr	r2, [r3]
    d504:	e59d300c 	ldr	r3, [sp, #12]
    d508:	e2831004 	add	r1, r3, #4, 0
    d50c:	e58d100c 	str	r1, [sp, #12]
    d510:	e5930000 	ldr	r0, [r3]
    d514:	e12fff32 	blx	r2
    d518:	e1a04005 	mov	r4, r5
    d51c:	eaffffc3 	b	d430 <vprintk+0x20>
    d520:	e2842002 	add	r2, r4, #2, 0
    d524:	e5d43002 	ldrb	r3, [r4, #2]
    d528:	e353006c 	cmp	r3, #108, 0	; 0x6c
    d52c:	1a000018 	bne	d594 <vprintk+0x184>
    d530:	e2845003 	add	r5, r4, #3, 0
    d534:	e5d43003 	ldrb	r3, [r4, #3]
    d538:	e3530078 	cmp	r3, #120, 0	; 0x78
    d53c:	1a00001b 	bne	d5b0 <vprintk+0x1a0>
    d540:	e59f416c 	ldr	r4, [pc, #364]	; d6b4 <vprintk+0x2a4>
    d544:	e5943000 	ldr	r3, [r4]
    d548:	e3a00030 	mov	r0, #48, 0	; 0x30
    d54c:	e12fff33 	blx	r3
    d550:	e5943000 	ldr	r3, [r4]
    d554:	e3a00078 	mov	r0, #120, 0	; 0x78
    d558:	e12fff33 	blx	r3
    d55c:	e59d300c 	ldr	r3, [sp, #12]
    d560:	e2833007 	add	r3, r3, #7, 0
    d564:	e3c33007 	bic	r3, r3, #7, 0
    d568:	e2832008 	add	r2, r3, #8, 0
    d56c:	e58d200c 	str	r2, [sp, #12]
    d570:	e5934000 	ldr	r4, [r3]
    d574:	e5931004 	ldr	r1, [r3, #4]
    d578:	e3510000 	cmp	r1, #0, 0
    d57c:	1a000012 	bne	d5cc <vprintk+0x1bc>
    d580:	e1a01004 	mov	r1, r4
    d584:	e3a00010 	mov	r0, #16, 0
    d588:	ebffff5c 	bl	d300 <emit_val>
    d58c:	e1a04005 	mov	r4, r5
    d590:	eaffffa6 	b	d430 <vprintk+0x20>
    d594:	e58d2000 	str	r2, [sp]
    d598:	e3a03039 	mov	r3, #57, 0	; 0x39
    d59c:	e59f2114 	ldr	r2, [pc, #276]	; d6b8 <vprintk+0x2a8>
    d5a0:	e59f1114 	ldr	r1, [pc, #276]	; d6bc <vprintk+0x2ac>
    d5a4:	e59f0114 	ldr	r0, [pc, #276]	; d6c0 <vprintk+0x2b0>
    d5a8:	ebffff49 	bl	d2d4 <printk>
    d5ac:	eb000078 	bl	d794 <clean_reboot>
    d5b0:	e58d5000 	str	r5, [sp]
    d5b4:	e3a0303c 	mov	r3, #60, 0	; 0x3c
    d5b8:	e59f20f8 	ldr	r2, [pc, #248]	; d6b8 <vprintk+0x2a8>
    d5bc:	e59f10f8 	ldr	r1, [pc, #248]	; d6bc <vprintk+0x2ac>
    d5c0:	e59f00f8 	ldr	r0, [pc, #248]	; d6c0 <vprintk+0x2b0>
    d5c4:	ebffff42 	bl	d2d4 <printk>
    d5c8:	eb000071 	bl	d794 <clean_reboot>
    d5cc:	e3a00010 	mov	r0, #16, 0
    d5d0:	ebffff4a 	bl	d300 <emit_val>
    d5d4:	eaffffe9 	b	d580 <vprintk+0x170>
    d5d8:	e59f40d4 	ldr	r4, [pc, #212]	; d6b4 <vprintk+0x2a4>
    d5dc:	e5943000 	ldr	r3, [r4]
    d5e0:	e3a00030 	mov	r0, #48, 0	; 0x30
    d5e4:	e12fff33 	blx	r3
    d5e8:	e5943000 	ldr	r3, [r4]
    d5ec:	e3a00078 	mov	r0, #120, 0	; 0x78
    d5f0:	e12fff33 	blx	r3
    d5f4:	e59d300c 	ldr	r3, [sp, #12]
    d5f8:	e2832004 	add	r2, r3, #4, 0
    d5fc:	e58d200c 	str	r2, [sp, #12]
    d600:	e5931000 	ldr	r1, [r3]
    d604:	e3a00010 	mov	r0, #16, 0
    d608:	ebffff3c 	bl	d300 <emit_val>
    d60c:	e1a04005 	mov	r4, r5
    d610:	eaffff86 	b	d430 <vprintk+0x20>
    d614:	e59d300c 	ldr	r3, [sp, #12]
    d618:	e2832004 	add	r2, r3, #4, 0
    d61c:	e58d200c 	str	r2, [sp, #12]
    d620:	e5934000 	ldr	r4, [r3]
    d624:	e3540000 	cmp	r4, #0, 0
    d628:	ba000004 	blt	d640 <vprintk+0x230>
    d62c:	e1a01004 	mov	r1, r4
    d630:	e3a0000a 	mov	r0, #10, 0
    d634:	ebffff31 	bl	d300 <emit_val>
    d638:	e1a04005 	mov	r4, r5
    d63c:	eaffff7b 	b	d430 <vprintk+0x20>
    d640:	e59f306c 	ldr	r3, [pc, #108]	; d6b4 <vprintk+0x2a4>
    d644:	e5933000 	ldr	r3, [r3]
    d648:	e3a0002d 	mov	r0, #45, 0	; 0x2d
    d64c:	e12fff33 	blx	r3
    d650:	e2644000 	rsb	r4, r4, #0, 0
    d654:	eafffff4 	b	d62c <vprintk+0x21c>
    d658:	e59d300c 	ldr	r3, [sp, #12]
    d65c:	e2832004 	add	r2, r3, #4, 0
    d660:	e58d200c 	str	r2, [sp, #12]
    d664:	e5934000 	ldr	r4, [r3]
    d668:	e5d40000 	ldrb	r0, [r4]
    d66c:	e3500000 	cmp	r0, #0, 0
    d670:	0a000004 	beq	d688 <vprintk+0x278>
    d674:	e59f3038 	ldr	r3, [pc, #56]	; d6b4 <vprintk+0x2a4>
    d678:	e5933000 	ldr	r3, [r3]
    d67c:	e12fff33 	blx	r3
    d680:	e2844001 	add	r4, r4, #1, 0
    d684:	eafffff7 	b	d668 <vprintk+0x258>
    d688:	e1a04005 	mov	r4, r5
    d68c:	eaffff67 	b	d430 <vprintk+0x20>
    d690:	e58d2000 	str	r2, [sp]
    d694:	e3a03060 	mov	r3, #96, 0	; 0x60
    d698:	e59f2018 	ldr	r2, [pc, #24]	; d6b8 <vprintk+0x2a8>
    d69c:	e59f1018 	ldr	r1, [pc, #24]	; d6bc <vprintk+0x2ac>
    d6a0:	e59f001c 	ldr	r0, [pc, #28]	; d6c4 <vprintk+0x2b4>
    d6a4:	ebffff0a 	bl	d2d4 <printk>
    d6a8:	eb000039 	bl	d794 <clean_reboot>
    d6ac:	e28dd014 	add	sp, sp, #20, 0
    d6b0:	e8bd8030 	pop	{r4, r5, pc}
    d6b4:	000108a8 	.word	0x000108a8
    d6b8:	000103b8 	.word	0x000103b8
    d6bc:	000102f4 	.word	0x000102f4
    d6c0:	0001034c 	.word	0x0001034c
    d6c4:	00010384 	.word	0x00010384

0000d6c8 <default_putchar>:
    d6c8:	e92d4010 	push	{r4, lr}
    d6cc:	e1a04000 	mov	r4, r0
    d6d0:	e6ef0070 	uxtb	r0, r0
    d6d4:	ebfffe5d 	bl	d050 <uart_put8>
    d6d8:	e1a00004 	mov	r0, r4
    d6dc:	e8bd8010 	pop	{r4, pc}

0000d6e0 <rpi_putchar_set>:
    d6e0:	e59f300c 	ldr	r3, [pc, #12]	; d6f4 <rpi_putchar_set+0x14>
    d6e4:	e5932000 	ldr	r2, [r3]
    d6e8:	e5830000 	str	r0, [r3]
    d6ec:	e1a00002 	mov	r0, r2
    d6f0:	e12fff1e 	bx	lr
    d6f4:	000108a8 	.word	0x000108a8

0000d6f8 <strcat>:
    d6f8:	e1a02000 	mov	r2, r0
    d6fc:	e1a03002 	mov	r3, r2
    d700:	e2822001 	add	r2, r2, #1, 0
    d704:	e5d3c000 	ldrb	ip, [r3]
    d708:	e35c0000 	cmp	ip, #0, 0
    d70c:	1afffffa 	bne	d6fc <strcat+0x4>
    d710:	e2433001 	sub	r3, r3, #1, 0
    d714:	e5d12000 	ldrb	r2, [r1]
    d718:	e2811001 	add	r1, r1, #1, 0
    d71c:	e5e32001 	strb	r2, [r3, #1]!
    d720:	e3520000 	cmp	r2, #0, 0
    d724:	1afffffa 	bne	d714 <strcat+0x1c>
    d728:	e12fff1e 	bx	lr

0000d72c <strcmp>:
    d72c:	e5d03000 	ldrb	r3, [r0]
    d730:	e3530000 	cmp	r3, #0, 0
    d734:	0a000004 	beq	d74c <strcmp+0x20>
    d738:	e5d12000 	ldrb	r2, [r1]
    d73c:	e1530002 	cmp	r3, r2
    d740:	02800001 	addeq	r0, r0, #1, 0
    d744:	02811001 	addeq	r1, r1, #1, 0
    d748:	0afffff7 	beq	d72c <strcmp>
    d74c:	e5d10000 	ldrb	r0, [r1]
    d750:	e0430000 	sub	r0, r3, r0
    d754:	e12fff1e 	bx	lr

0000d758 <strcpy>:
    d758:	e1a0c000 	mov	ip, r0
    d75c:	e5d12000 	ldrb	r2, [r1]
    d760:	e2811001 	add	r1, r1, #1, 0
    d764:	e5cc2000 	strb	r2, [ip]
    d768:	e28cc001 	add	ip, ip, #1, 0
    d76c:	e3520000 	cmp	r2, #0, 0
    d770:	1afffff9 	bne	d75c <strcpy+0x4>
    d774:	e12fff1e 	bx	lr

0000d778 <strlen>:
    d778:	e1a02000 	mov	r2, r0
    d77c:	e3a00000 	mov	r0, #0, 0
    d780:	e7d23000 	ldrb	r3, [r2, r0]
    d784:	e3530000 	cmp	r3, #0, 0
    d788:	012fff1e 	bxeq	lr
    d78c:	e2800001 	add	r0, r0, #1, 0
    d790:	eafffffa 	b	d780 <strlen+0x8>

0000d794 <clean_reboot>:
    d794:	e92d4010 	push	{r4, lr}
    d798:	e59f0010 	ldr	r0, [pc, #16]	; d7b0 <clean_reboot+0x1c>
    d79c:	eb000189 	bl	ddc8 <putk>
    d7a0:	ebfffe4f 	bl	d0e4 <uart_flush_tx>
    d7a4:	e3a0000a 	mov	r0, #10, 0
    d7a8:	eb00004c 	bl	d8e0 <delay_ms>
    d7ac:	eb000021 	bl	d838 <rpi_reboot>
    d7b0:	000103c0 	.word	0x000103c0

0000d7b4 <_cstart>:
    d7b4:	e92d4010 	push	{r4, lr}
    d7b8:	eb00000c 	bl	d7f0 <custom_loader>
    d7bc:	e59f3024 	ldr	r3, [pc, #36]	; d7e8 <_cstart+0x34>
    d7c0:	e59f2024 	ldr	r2, [pc, #36]	; d7ec <_cstart+0x38>
    d7c4:	e1530002 	cmp	r3, r2
    d7c8:	33a02000 	movcc	r2, #0, 0
    d7cc:	34832004 	strcc	r2, [r3], #4
    d7d0:	3afffffa 	bcc	d7c0 <_cstart+0xc>
    d7d4:	ebfffdcb 	bl	cf08 <uart_init>
    d7d8:	e3a03001 	mov	r3, #1, 0
    d7dc:	ee0f3f1c 	mcr	15, 0, r3, cr15, cr12, {0}
    d7e0:	ebffeb12 	bl	8430 <notmain>
    d7e4:	ebffffea 	bl	d794 <clean_reboot>
    d7e8:	000108b8 	.word	0x000108b8
    d7ec:	00010de8 	.word	0x00010de8

0000d7f0 <custom_loader>:
    d7f0:	e12fff1e 	bx	lr

0000d7f4 <dev_barrier>:
    d7f4:	ea000002 	b	d804 <dsb>

0000d7f8 <dmb>:
    d7f8:	e3a00000 	mov	r0, #0, 0
    d7fc:	ee070fba 	mcr	15, 0, r0, cr7, cr10, {5}
    d800:	e12fff1e 	bx	lr

0000d804 <dsb>:
    d804:	ee070f9a 	mcr	15, 0, r0, cr7, cr10, {4}
    d808:	e12fff1e 	bx	lr

0000d80c <at_user_level>:
    d80c:	e10f0000 	mrs	r0, CPSR
    d810:	e200001f 	and	r0, r0, #31, 0
    d814:	e3500010 	cmp	r0, #16, 0
    d818:	13a00000 	movne	r0, #0, 0
    d81c:	03a00001 	moveq	r0, #1, 0
    d820:	e12fff1e 	bx	lr

0000d824 <set_user_level>:
    d824:	e10f3000 	mrs	r3, CPSR
    d828:	e3c3301f 	bic	r3, r3, #31, 0
    d82c:	e3833010 	orr	r3, r3, #16, 0
    d830:	e129f003 	msr	CPSR_fc, r3
    d834:	e12fff1e 	bx	lr

0000d838 <rpi_reboot>:
    d838:	e92d4010 	push	{r4, lr}
    d83c:	ebfffff2 	bl	d80c <at_user_level>
    d840:	e3500000 	cmp	r0, #0, 0
    d844:	1a00000a 	bne	d874 <rpi_reboot+0x3c>
    d848:	eb0001e3 	bl	dfdc <reboot_callout>
    d84c:	ebfffe24 	bl	d0e4 <uart_flush_tx>
    d850:	e3a0000a 	mov	r0, #10, 0
    d854:	eb000021 	bl	d8e0 <delay_ms>
    d858:	e59f101c 	ldr	r1, [pc, #28]	; d87c <rpi_reboot+0x44>
    d85c:	e59f001c 	ldr	r0, [pc, #28]	; d880 <rpi_reboot+0x48>
    d860:	ebffe9ef 	bl	8024 <PUT32>
    d864:	e59f1018 	ldr	r1, [pc, #24]	; d884 <rpi_reboot+0x4c>
    d868:	e59f0018 	ldr	r0, [pc, #24]	; d888 <rpi_reboot+0x50>
    d86c:	ebffe9ec 	bl	8024 <PUT32>
    d870:	eafffffe 	b	d870 <rpi_reboot+0x38>
    d874:	ebffffea 	bl	d824 <set_user_level>
    d878:	eafffff2 	b	d848 <rpi_reboot+0x10>
    d87c:	5a000001 	.word	0x5a000001
    d880:	20100024 	.word	0x20100024
    d884:	5a000020 	.word	0x5a000020
    d888:	2010001c 	.word	0x2010001c

0000d88c <timer_get_usec_raw>:
    d88c:	e92d4010 	push	{r4, lr}
    d890:	e59f0004 	ldr	r0, [pc, #4]	; d89c <timer_get_usec_raw+0x10>
    d894:	ebffe9e4 	bl	802c <GET32>
    d898:	e8bd8010 	pop	{r4, pc}
    d89c:	20003004 	.word	0x20003004

0000d8a0 <timer_get_usec>:
    d8a0:	e92d4010 	push	{r4, lr}
    d8a4:	ebffffd2 	bl	d7f4 <dev_barrier>
    d8a8:	ebfffff7 	bl	d88c <timer_get_usec_raw>
    d8ac:	e1a04000 	mov	r4, r0
    d8b0:	ebffffcf 	bl	d7f4 <dev_barrier>
    d8b4:	e1a00004 	mov	r0, r4
    d8b8:	e8bd8010 	pop	{r4, pc}

0000d8bc <delay_us>:
    d8bc:	e92d4070 	push	{r4, r5, r6, lr}
    d8c0:	e1a05000 	mov	r5, r0
    d8c4:	ebfffff5 	bl	d8a0 <timer_get_usec>
    d8c8:	e1a04000 	mov	r4, r0
    d8cc:	ebfffff3 	bl	d8a0 <timer_get_usec>
    d8d0:	e0400004 	sub	r0, r0, r4
    d8d4:	e1500005 	cmp	r0, r5
    d8d8:	3afffffb 	bcc	d8cc <delay_us+0x10>
    d8dc:	e8bd8070 	pop	{r4, r5, r6, pc}

0000d8e0 <delay_ms>:
    d8e0:	e92d4010 	push	{r4, lr}
    d8e4:	e0603280 	rsb	r3, r0, r0, lsl #5
    d8e8:	e0800103 	add	r0, r0, r3, lsl #2
    d8ec:	e1a00180 	lsl	r0, r0, #3
    d8f0:	ebfffff1 	bl	d8bc <delay_us>
    d8f4:	e8bd8010 	pop	{r4, pc}

0000d8f8 <delay_sec>:
    d8f8:	e92d4010 	push	{r4, lr}
    d8fc:	e0603280 	rsb	r3, r0, r0, lsl #5
    d900:	e0800103 	add	r0, r0, r3, lsl #2
    d904:	e1a00180 	lsl	r0, r0, #3
    d908:	ebfffff4 	bl	d8e0 <delay_ms>
    d90c:	e8bd8010 	pop	{r4, pc}

0000d910 <unhandled_reset>:
    d910:	e24ee004 	sub	lr, lr, #4, 0
    d914:	e3a0d409 	mov	sp, #150994944	; 0x9000000
    d918:	e92d5fff 	push	{r0, r1, r2, r3, r4, r5, r6, r7, r8, r9, sl, fp, ip, lr}
    d91c:	e1a0000e 	mov	r0, lr
    d920:	eb000180 	bl	df28 <reset_vector>
    d924:	e8bd5fff 	pop	{r0, r1, r2, r3, r4, r5, r6, r7, r8, r9, sl, fp, ip, lr}
    d928:	e1b0f00e 	movs	pc, lr

0000d92c <unhandled_undefined_instruction>:
    d92c:	e24ee004 	sub	lr, lr, #4, 0
    d930:	e3a0d409 	mov	sp, #150994944	; 0x9000000
    d934:	e92d5fff 	push	{r0, r1, r2, r3, r4, r5, r6, r7, r8, r9, sl, fp, ip, lr}
    d938:	e1a0000e 	mov	r0, lr
    d93c:	eb000197 	bl	dfa0 <undefined_instruction_vector>
    d940:	e8bd5fff 	pop	{r0, r1, r2, r3, r4, r5, r6, r7, r8, r9, sl, fp, ip, lr}
    d944:	e1b0f00e 	movs	pc, lr

0000d948 <unhandled_prefetch_abort>:
    d948:	e24ee004 	sub	lr, lr, #4, 0
    d94c:	e3a0d409 	mov	sp, #150994944	; 0x9000000
    d950:	e92d5fff 	push	{r0, r1, r2, r3, r4, r5, r6, r7, r8, r9, sl, fp, ip, lr}
    d954:	e1a0000e 	mov	r0, lr
    d958:	eb000163 	bl	deec <prefetch_abort_vector>
    d95c:	e8bd5fff 	pop	{r0, r1, r2, r3, r4, r5, r6, r7, r8, r9, sl, fp, ip, lr}
    d960:	e1b0f00e 	movs	pc, lr

0000d964 <unhandled_data_abort>:
    d964:	e24ee008 	sub	lr, lr, #8, 0
    d968:	e3a0d409 	mov	sp, #150994944	; 0x9000000
    d96c:	e92d5fff 	push	{r0, r1, r2, r3, r4, r5, r6, r7, r8, r9, sl, fp, ip, lr}
    d970:	e1a0000e 	mov	r0, lr
    d974:	eb000120 	bl	ddfc <data_abort_vector>
    d978:	e8bd5fff 	pop	{r0, r1, r2, r3, r4, r5, r6, r7, r8, r9, sl, fp, ip, lr}
    d97c:	e1b0f00e 	movs	pc, lr

0000d980 <unhandled_interrupt>:
    d980:	e24ee004 	sub	lr, lr, #4, 0
    d984:	e3a0d409 	mov	sp, #150994944	; 0x9000000
    d988:	e92d5fff 	push	{r0, r1, r2, r3, r4, r5, r6, r7, r8, r9, sl, fp, ip, lr}
    d98c:	e1a0000e 	mov	r0, lr
    d990:	eb000146 	bl	deb0 <int_vector>
    d994:	e8bd5fff 	pop	{r0, r1, r2, r3, r4, r5, r6, r7, r8, r9, sl, fp, ip, lr}
    d998:	e1b0f00e 	movs	pc, lr

0000d99c <unhandled_swi>:
    d99c:	e24ee004 	sub	lr, lr, #4, 0
    d9a0:	e3a0d409 	mov	sp, #150994944	; 0x9000000
    d9a4:	e92d5fff 	push	{r0, r1, r2, r3, r4, r5, r6, r7, r8, r9, sl, fp, ip, lr}
    d9a8:	e1a0000e 	mov	r0, lr
    d9ac:	eb00016c 	bl	df64 <syscall_vector>
    d9b0:	e8bd5fff 	pop	{r0, r1, r2, r3, r4, r5, r6, r7, r8, r9, sl, fp, ip, lr}
    d9b4:	e1b0f00e 	movs	pc, lr

0000d9b8 <unhandled_fiq>:
    d9b8:	e24ee004 	sub	lr, lr, #4, 0
    d9bc:	e3a0d409 	mov	sp, #150994944	; 0x9000000
    d9c0:	e92d5fff 	push	{r0, r1, r2, r3, r4, r5, r6, r7, r8, r9, sl, fp, ip, lr}
    d9c4:	e1a0000e 	mov	r0, lr
    d9c8:	eb000129 	bl	de74 <fiq_vector>
    d9cc:	e8bd5fff 	pop	{r0, r1, r2, r3, r4, r5, r6, r7, r8, r9, sl, fp, ip, lr}
    d9d0:	e1b0f00e 	movs	pc, lr

0000d9d4 <kmalloc_heap_end>:
    d9d4:	e59f3004 	ldr	r3, [pc, #4]	; d9e0 <kmalloc_heap_end+0xc>
    d9d8:	e5930000 	ldr	r0, [r3]
    d9dc:	e12fff1e 	bx	lr
    d9e0:	000108ac 	.word	0x000108ac

0000d9e4 <kmalloc_heap_start>:
    d9e4:	e59f3004 	ldr	r3, [pc, #4]	; d9f0 <kmalloc_heap_start+0xc>
    d9e8:	e5930004 	ldr	r0, [r3, #4]
    d9ec:	e12fff1e 	bx	lr
    d9f0:	000108ac 	.word	0x000108ac

0000d9f4 <kmalloc_heap_ptr>:
    d9f4:	e59f3004 	ldr	r3, [pc, #4]	; da00 <kmalloc_heap_ptr+0xc>
    d9f8:	e5930008 	ldr	r0, [r3, #8]
    d9fc:	e12fff1e 	bx	lr
    da00:	000108ac 	.word	0x000108ac

0000da04 <kmalloc_init_set_start>:
    da04:	e52de004 	push	{lr}		; (str lr, [sp, #-4]!)
    da08:	e24dd00c 	sub	sp, sp, #12, 0
    da0c:	e59f30a8 	ldr	r3, [pc, #168]	; dabc <kmalloc_init_set_start+0xb8>
    da10:	e5933000 	ldr	r3, [r3]
    da14:	e3530000 	cmp	r3, #0, 0
    da18:	1a00000f 	bne	da5c <kmalloc_init_set_start+0x58>
    da1c:	e59f3098 	ldr	r3, [pc, #152]	; dabc <kmalloc_init_set_start+0xb8>
    da20:	e3a02001 	mov	r2, #1, 0
    da24:	e5832000 	str	r2, [r3]
    da28:	e3510000 	cmp	r1, #0, 0
    da2c:	0a000010 	beq	da74 <kmalloc_init_set_start+0x70>
    da30:	e59f3088 	ldr	r3, [pc, #136]	; dac0 <kmalloc_init_set_start+0xbc>
    da34:	e5933008 	ldr	r3, [r3, #8]
    da38:	e1530000 	cmp	r3, r0
    da3c:	8a000014 	bhi	da94 <kmalloc_init_set_start+0x90>
    da40:	e59f3078 	ldr	r3, [pc, #120]	; dac0 <kmalloc_init_set_start+0xbc>
    da44:	e5830008 	str	r0, [r3, #8]
    da48:	e5830004 	str	r0, [r3, #4]
    da4c:	e0800001 	add	r0, r0, r1
    da50:	e5830000 	str	r0, [r3]
    da54:	e28dd00c 	add	sp, sp, #12, 0
    da58:	e49df004 	pop	{pc}		; (ldr pc, [sp], #4)
    da5c:	e3a03031 	mov	r3, #49, 0	; 0x31
    da60:	e59f205c 	ldr	r2, [pc, #92]	; dac4 <kmalloc_init_set_start+0xc0>
    da64:	e59f105c 	ldr	r1, [pc, #92]	; dac8 <kmalloc_init_set_start+0xc4>
    da68:	e59f005c 	ldr	r0, [pc, #92]	; dacc <kmalloc_init_set_start+0xc8>
    da6c:	ebfffe18 	bl	d2d4 <printk>
    da70:	ebffff47 	bl	d794 <clean_reboot>
    da74:	e59f3054 	ldr	r3, [pc, #84]	; dad0 <kmalloc_init_set_start+0xcc>
    da78:	e58d3000 	str	r3, [sp]
    da7c:	e3a03036 	mov	r3, #54, 0	; 0x36
    da80:	e59f203c 	ldr	r2, [pc, #60]	; dac4 <kmalloc_init_set_start+0xc0>
    da84:	e59f103c 	ldr	r1, [pc, #60]	; dac8 <kmalloc_init_set_start+0xc4>
    da88:	e59f0044 	ldr	r0, [pc, #68]	; dad4 <kmalloc_init_set_start+0xd0>
    da8c:	ebfffe10 	bl	d2d4 <printk>
    da90:	ebffff3f 	bl	d794 <clean_reboot>
    da94:	e59f3024 	ldr	r3, [pc, #36]	; dac0 <kmalloc_init_set_start+0xbc>
    da98:	e5933000 	ldr	r3, [r3]
    da9c:	e58d3004 	str	r3, [sp, #4]
    daa0:	e58d0000 	str	r0, [sp]
    daa4:	e3a0303a 	mov	r3, #58, 0	; 0x3a
    daa8:	e59f2014 	ldr	r2, [pc, #20]	; dac4 <kmalloc_init_set_start+0xc0>
    daac:	e59f1014 	ldr	r1, [pc, #20]	; dac8 <kmalloc_init_set_start+0xc4>
    dab0:	e59f0020 	ldr	r0, [pc, #32]	; dad8 <kmalloc_init_set_start+0xd4>
    dab4:	ebfffe06 	bl	d2d4 <printk>
    dab8:	ebffff35 	bl	d794 <clean_reboot>
    dabc:	00010bdc 	.word	0x00010bdc
    dac0:	000108ac 	.word	0x000108ac
    dac4:	00010594 	.word	0x00010594
    dac8:	000103cc 	.word	0x000103cc
    dacc:	000103d8 	.word	0x000103d8
    dad0:	0001040c 	.word	0x0001040c
    dad4:	0000e094 	.word	0x0000e094
    dad8:	00010418 	.word	0x00010418

0000dadc <kmalloc_init>:
    dadc:	e92d4010 	push	{r4, lr}
    dae0:	e59f303c 	ldr	r3, [pc, #60]	; db24 <kmalloc_init+0x48>
    dae4:	e5933004 	ldr	r3, [r3, #4]
    dae8:	e3530000 	cmp	r3, #0, 0
    daec:	1a000006 	bne	db0c <kmalloc_init+0x30>
    daf0:	e59f302c 	ldr	r3, [pc, #44]	; db24 <kmalloc_init+0x48>
    daf4:	e3a02001 	mov	r2, #1, 0
    daf8:	e5832004 	str	r2, [r3, #4]
    dafc:	e3a01302 	mov	r1, #134217728	; 0x8000000
    db00:	e3a00601 	mov	r0, #1048576	; 0x100000
    db04:	ebffffbe 	bl	da04 <kmalloc_init_set_start>
    db08:	e8bd8010 	pop	{r4, pc}
    db0c:	e3a03046 	mov	r3, #70, 0	; 0x46
    db10:	e59f2010 	ldr	r2, [pc, #16]	; db28 <kmalloc_init+0x4c>
    db14:	e59f1010 	ldr	r1, [pc, #16]	; db2c <kmalloc_init+0x50>
    db18:	e59f0010 	ldr	r0, [pc, #16]	; db30 <kmalloc_init+0x54>
    db1c:	ebfffdec 	bl	d2d4 <printk>
    db20:	ebffff1b 	bl	d794 <clean_reboot>
    db24:	00010bdc 	.word	0x00010bdc
    db28:	000105ac 	.word	0x000105ac
    db2c:	000103cc 	.word	0x000103cc
    db30:	0001045c 	.word	0x0001045c

0000db34 <kmalloc_notzero>:
    db34:	e52de004 	push	{lr}		; (str lr, [sp, #-4]!)
    db38:	e24dd00c 	sub	sp, sp, #12, 0
    db3c:	e3500000 	cmp	r0, #0, 0
    db40:	0a00000a 	beq	db70 <kmalloc_notzero+0x3c>
    db44:	e2800007 	add	r0, r0, #7, 0
    db48:	e3c03007 	bic	r3, r0, #7, 0
    db4c:	e59f2060 	ldr	r2, [pc, #96]	; dbb4 <kmalloc_notzero+0x80>
    db50:	e5920008 	ldr	r0, [r2, #8]
    db54:	e0801003 	add	r1, r0, r3
    db58:	e5821008 	str	r1, [r2, #8]
    db5c:	e5922000 	ldr	r2, [r2]
    db60:	e1510002 	cmp	r1, r2
    db64:	8a000009 	bhi	db90 <kmalloc_notzero+0x5c>
    db68:	e28dd00c 	add	sp, sp, #12, 0
    db6c:	e49df004 	pop	{pc}		; (ldr pc, [sp], #4)
    db70:	e59f3040 	ldr	r3, [pc, #64]	; dbb8 <kmalloc_notzero+0x84>
    db74:	e58d3000 	str	r3, [sp]
    db78:	e3a03051 	mov	r3, #81, 0	; 0x51
    db7c:	e59f2038 	ldr	r2, [pc, #56]	; dbbc <kmalloc_notzero+0x88>
    db80:	e59f1038 	ldr	r1, [pc, #56]	; dbc0 <kmalloc_notzero+0x8c>
    db84:	e59f0038 	ldr	r0, [pc, #56]	; dbc4 <kmalloc_notzero+0x90>
    db88:	ebfffdd1 	bl	d2d4 <printk>
    db8c:	ebffff00 	bl	d794 <clean_reboot>
    db90:	e0411002 	sub	r1, r1, r2
    db94:	e58d1004 	str	r1, [sp, #4]
    db98:	e58d3000 	str	r3, [sp]
    db9c:	e3a03057 	mov	r3, #87, 0	; 0x57
    dba0:	e59f2014 	ldr	r2, [pc, #20]	; dbbc <kmalloc_notzero+0x88>
    dba4:	e59f1014 	ldr	r1, [pc, #20]	; dbc0 <kmalloc_notzero+0x8c>
    dba8:	e59f0018 	ldr	r0, [pc, #24]	; dbc8 <kmalloc_notzero+0x94>
    dbac:	ebfffdc8 	bl	d2d4 <printk>
    dbb0:	ebfffef7 	bl	d794 <clean_reboot>
    dbb4:	000108ac 	.word	0x000108ac
    dbb8:	00010410 	.word	0x00010410
    dbbc:	000105bc 	.word	0x000105bc
    dbc0:	000103cc 	.word	0x000103cc
    dbc4:	0000e094 	.word	0x0000e094
    dbc8:	0001048c 	.word	0x0001048c

0000dbcc <kmalloc>:
    dbcc:	e92d4030 	push	{r4, r5, lr}
    dbd0:	e24dd00c 	sub	sp, sp, #12, 0
    dbd4:	e2504000 	subs	r4, r0, #0, 0
    dbd8:	0a000008 	beq	dc00 <kmalloc+0x34>
    dbdc:	e1a00004 	mov	r0, r4
    dbe0:	ebffffd3 	bl	db34 <kmalloc_notzero>
    dbe4:	e1a05000 	mov	r5, r0
    dbe8:	e1a02004 	mov	r2, r4
    dbec:	e3a01000 	mov	r1, #0, 0
    dbf0:	ebfffd84 	bl	d208 <memset>
    dbf4:	e1a00005 	mov	r0, r5
    dbf8:	e28dd00c 	add	sp, sp, #12, 0
    dbfc:	e8bd8030 	pop	{r4, r5, pc}
    dc00:	e59f3018 	ldr	r3, [pc, #24]	; dc20 <kmalloc+0x54>
    dc04:	e58d3000 	str	r3, [sp]
    dc08:	e3a0305e 	mov	r3, #94, 0	; 0x5e
    dc0c:	e59f2010 	ldr	r2, [pc, #16]	; dc24 <kmalloc+0x58>
    dc10:	e59f1010 	ldr	r1, [pc, #16]	; dc28 <kmalloc+0x5c>
    dc14:	e59f0010 	ldr	r0, [pc, #16]	; dc2c <kmalloc+0x60>
    dc18:	ebfffdad 	bl	d2d4 <printk>
    dc1c:	ebfffedc 	bl	d794 <clean_reboot>
    dc20:	00010410 	.word	0x00010410
    dc24:	000105cc 	.word	0x000105cc
    dc28:	000103cc 	.word	0x000103cc
    dc2c:	0000e094 	.word	0x0000e094

0000dc30 <kmalloc_aligned>:
    dc30:	e52de004 	push	{lr}		; (str lr, [sp, #-4]!)
    dc34:	e24dd00c 	sub	sp, sp, #12, 0
    dc38:	e3500000 	cmp	r0, #0, 0
    dc3c:	0a000014 	beq	dc94 <kmalloc_aligned+0x64>
    dc40:	e2613000 	rsb	r3, r1, #0, 0
    dc44:	e1d13003 	bics	r3, r1, r3
    dc48:	1a000019 	bne	dcb4 <kmalloc_aligned+0x84>
    dc4c:	e3510008 	cmp	r1, #8, 0
    dc50:	33a01008 	movcc	r1, #8, 0
    dc54:	e59f30c8 	ldr	r3, [pc, #200]	; dd24 <kmalloc_aligned+0xf4>
    dc58:	e5932008 	ldr	r2, [r3, #8]
    dc5c:	e2613000 	rsb	r3, r1, #0, 0
    dc60:	e1d1c003 	bics	ip, r1, r3
    dc64:	1a00001c 	bne	dcdc <kmalloc_aligned+0xac>
    dc68:	e0822001 	add	r2, r2, r1
    dc6c:	e2422001 	sub	r2, r2, #1, 0
    dc70:	e0033002 	and	r3, r3, r2
    dc74:	e2411001 	sub	r1, r1, #1, 0
    dc78:	e1110003 	tst	r1, r3
    dc7c:	1a00001e 	bne	dcfc <kmalloc_aligned+0xcc>
    dc80:	e59f209c 	ldr	r2, [pc, #156]	; dd24 <kmalloc_aligned+0xf4>
    dc84:	e5823008 	str	r3, [r2, #8]
    dc88:	ebffffcf 	bl	dbcc <kmalloc>
    dc8c:	e28dd00c 	add	sp, sp, #12, 0
    dc90:	e49df004 	pop	{pc}		; (ldr pc, [sp], #4)
    dc94:	e59f308c 	ldr	r3, [pc, #140]	; dd28 <kmalloc_aligned+0xf8>
    dc98:	e58d3000 	str	r3, [sp]
    dc9c:	e3a03069 	mov	r3, #105, 0	; 0x69
    dca0:	e59f2084 	ldr	r2, [pc, #132]	; dd2c <kmalloc_aligned+0xfc>
    dca4:	e59f1084 	ldr	r1, [pc, #132]	; dd30 <kmalloc_aligned+0x100>
    dca8:	e59f0084 	ldr	r0, [pc, #132]	; dd34 <kmalloc_aligned+0x104>
    dcac:	ebfffd88 	bl	d2d4 <printk>
    dcb0:	ebfffeb7 	bl	d794 <clean_reboot>
    dcb4:	e59f307c 	ldr	r3, [pc, #124]	; dd38 <kmalloc_aligned+0x108>
    dcb8:	e58d3004 	str	r3, [sp, #4]
    dcbc:	e59f3078 	ldr	r3, [pc, #120]	; dd3c <kmalloc_aligned+0x10c>
    dcc0:	e58d3000 	str	r3, [sp]
    dcc4:	e3a0306a 	mov	r3, #106, 0	; 0x6a
    dcc8:	e59f205c 	ldr	r2, [pc, #92]	; dd2c <kmalloc_aligned+0xfc>
    dccc:	e59f105c 	ldr	r1, [pc, #92]	; dd30 <kmalloc_aligned+0x100>
    dcd0:	e59f0068 	ldr	r0, [pc, #104]	; dd40 <kmalloc_aligned+0x110>
    dcd4:	ebfffd7e 	bl	d2d4 <printk>
    dcd8:	ebfffead 	bl	d794 <clean_reboot>
    dcdc:	e59f3060 	ldr	r3, [pc, #96]	; dd44 <kmalloc_aligned+0x114>
    dce0:	e58d3000 	str	r3, [sp]
    dce4:	e3a03011 	mov	r3, #17, 0
    dce8:	e59f2058 	ldr	r2, [pc, #88]	; dd48 <kmalloc_aligned+0x118>
    dcec:	e59f103c 	ldr	r1, [pc, #60]	; dd30 <kmalloc_aligned+0x100>
    dcf0:	e59f003c 	ldr	r0, [pc, #60]	; dd34 <kmalloc_aligned+0x104>
    dcf4:	ebfffd76 	bl	d2d4 <printk>
    dcf8:	ebfffea5 	bl	d794 <clean_reboot>
    dcfc:	e59f3048 	ldr	r3, [pc, #72]	; dd4c <kmalloc_aligned+0x11c>
    dd00:	e58d3004 	str	r3, [sp, #4]
    dd04:	e59f3044 	ldr	r3, [pc, #68]	; dd50 <kmalloc_aligned+0x120>
    dd08:	e58d3000 	str	r3, [sp]
    dd0c:	e3a03072 	mov	r3, #114, 0	; 0x72
    dd10:	e59f2014 	ldr	r2, [pc, #20]	; dd2c <kmalloc_aligned+0xfc>
    dd14:	e59f1014 	ldr	r1, [pc, #20]	; dd30 <kmalloc_aligned+0x100>
    dd18:	e59f0020 	ldr	r0, [pc, #32]	; dd40 <kmalloc_aligned+0x110>
    dd1c:	ebfffd6c 	bl	d2d4 <printk>
    dd20:	ebfffe9b 	bl	d794 <clean_reboot>
    dd24:	000108ac 	.word	0x000108ac
    dd28:	00010410 	.word	0x00010410
    dd2c:	000105d4 	.word	0x000105d4
    dd30:	000103cc 	.word	0x000103cc
    dd34:	0000e094 	.word	0x0000e094
    dd38:	00010504 	.word	0x00010504
    dd3c:	0001051c 	.word	0x0001051c
    dd40:	000104d4 	.word	0x000104d4
    dd44:	00010530 	.word	0x00010530
    dd48:	000105e4 	.word	0x000105e4
    dd4c:	0001053c 	.word	0x0001053c
    dd50:	00010548 	.word	0x00010548

0000dd54 <kfree_all>:
    dd54:	e59f3008 	ldr	r3, [pc, #8]	; dd64 <kfree_all+0x10>
    dd58:	e5932004 	ldr	r2, [r3, #4]
    dd5c:	e5832008 	str	r2, [r3, #8]
    dd60:	e12fff1e 	bx	lr
    dd64:	000108ac 	.word	0x000108ac

0000dd68 <kfree_pop>:
    dd68:	e59f3048 	ldr	r3, [pc, #72]	; ddb8 <kfree_pop+0x50>
    dd6c:	e5933004 	ldr	r3, [r3, #4]
    dd70:	e1530000 	cmp	r3, r0
    dd74:	8a000006 	bhi	dd94 <kfree_pop+0x2c>
    dd78:	e59f3038 	ldr	r3, [pc, #56]	; ddb8 <kfree_pop+0x50>
    dd7c:	e5933000 	ldr	r3, [r3]
    dd80:	e1530000 	cmp	r3, r0
    dd84:	3a000002 	bcc	dd94 <kfree_pop+0x2c>
    dd88:	e59f3028 	ldr	r3, [pc, #40]	; ddb8 <kfree_pop+0x50>
    dd8c:	e5830008 	str	r0, [r3, #8]
    dd90:	e12fff1e 	bx	lr
    dd94:	e52de004 	push	{lr}		; (str lr, [sp, #-4]!)
    dd98:	e24dd00c 	sub	sp, sp, #12, 0
    dd9c:	e58d0000 	str	r0, [sp]
    dda0:	e3a03081 	mov	r3, #129, 0	; 0x81
    dda4:	e59f2010 	ldr	r2, [pc, #16]	; ddbc <kfree_pop+0x54>
    dda8:	e59f1010 	ldr	r1, [pc, #16]	; ddc0 <kfree_pop+0x58>
    ddac:	e59f0010 	ldr	r0, [pc, #16]	; ddc4 <kfree_pop+0x5c>
    ddb0:	ebfffd47 	bl	d2d4 <printk>
    ddb4:	ebfffe76 	bl	d794 <clean_reboot>
    ddb8:	000108ac 	.word	0x000108ac
    ddbc:	000105ec 	.word	0x000105ec
    ddc0:	000103cc 	.word	0x000103cc
    ddc4:	00010564 	.word	0x00010564

0000ddc8 <putk>:
    ddc8:	e92d4010 	push	{r4, lr}
    ddcc:	e1a04000 	mov	r4, r0
    ddd0:	e5d40000 	ldrb	r0, [r4]
    ddd4:	e3500000 	cmp	r0, #0, 0
    ddd8:	0a000004 	beq	ddf0 <putk+0x28>
    dddc:	e59f3014 	ldr	r3, [pc, #20]	; ddf8 <putk+0x30>
    dde0:	e5933000 	ldr	r3, [r3]
    dde4:	e12fff33 	blx	r3
    dde8:	e2844001 	add	r4, r4, #1, 0
    ddec:	eafffff7 	b	ddd0 <putk+0x8>
    ddf0:	e3a00001 	mov	r0, #1, 0
    ddf4:	e8bd8010 	pop	{r4, pc}
    ddf8:	000108a8 	.word	0x000108a8

0000ddfc <data_abort_vector>:
    ddfc:	e52de004 	push	{lr}		; (str lr, [sp, #-4]!)
    de00:	e24dd00c 	sub	sp, sp, #12, 0
    de04:	e58d0004 	str	r0, [sp, #4]
    de08:	e59f3018 	ldr	r3, [pc, #24]	; de28 <data_abort_vector+0x2c>
    de0c:	e58d3000 	str	r3, [sp]
    de10:	e3a03002 	mov	r3, #2, 0
    de14:	e59f2010 	ldr	r2, [pc, #16]	; de2c <data_abort_vector+0x30>
    de18:	e59f1010 	ldr	r1, [pc, #16]	; de30 <data_abort_vector+0x34>
    de1c:	e59f0010 	ldr	r0, [pc, #16]	; de34 <data_abort_vector+0x38>
    de20:	ebfffd2b 	bl	d2d4 <printk>
    de24:	ebfffe5a 	bl	d794 <clean_reboot>
    de28:	00010670 	.word	0x00010670
    de2c:	0001067c 	.word	0x0001067c
    de30:	000105f8 	.word	0x000105f8
    de34:	00010624 	.word	0x00010624

0000de38 <fast_interrupt_vector>:
    de38:	e52de004 	push	{lr}		; (str lr, [sp, #-4]!)
    de3c:	e24dd00c 	sub	sp, sp, #12, 0
    de40:	e58d0004 	str	r0, [sp, #4]
    de44:	e59f3018 	ldr	r3, [pc, #24]	; de64 <fast_interrupt_vector+0x2c>
    de48:	e58d3000 	str	r3, [sp]
    de4c:	e3a03002 	mov	r3, #2, 0
    de50:	e59f2010 	ldr	r2, [pc, #16]	; de68 <fast_interrupt_vector+0x30>
    de54:	e59f1010 	ldr	r1, [pc, #16]	; de6c <fast_interrupt_vector+0x34>
    de58:	e59f0010 	ldr	r0, [pc, #16]	; de70 <fast_interrupt_vector+0x38>
    de5c:	ebfffd1c 	bl	d2d4 <printk>
    de60:	ebfffe4b 	bl	d794 <clean_reboot>
    de64:	000106b4 	.word	0x000106b4
    de68:	000106bc 	.word	0x000106bc
    de6c:	00010690 	.word	0x00010690
    de70:	00010624 	.word	0x00010624

0000de74 <fiq_vector>:
    de74:	e52de004 	push	{lr}		; (str lr, [sp, #-4]!)
    de78:	e24dd00c 	sub	sp, sp, #12, 0
    de7c:	e58d0004 	str	r0, [sp, #4]
    de80:	e59f3018 	ldr	r3, [pc, #24]	; dea0 <fiq_vector+0x2c>
    de84:	e58d3000 	str	r3, [sp]
    de88:	e3a03003 	mov	r3, #3, 0
    de8c:	e59f2010 	ldr	r2, [pc, #16]	; dea4 <fiq_vector+0x30>
    de90:	e59f1010 	ldr	r1, [pc, #16]	; dea8 <fiq_vector+0x34>
    de94:	e59f0010 	ldr	r0, [pc, #16]	; deac <fiq_vector+0x38>
    de98:	ebfffd0d 	bl	d2d4 <printk>
    de9c:	ebfffe3c 	bl	d794 <clean_reboot>
    dea0:	000106b4 	.word	0x000106b4
    dea4:	000106d4 	.word	0x000106d4
    dea8:	00010690 	.word	0x00010690
    deac:	00010624 	.word	0x00010624

0000deb0 <int_vector>:
    deb0:	e52de004 	push	{lr}		; (str lr, [sp, #-4]!)
    deb4:	e24dd00c 	sub	sp, sp, #12, 0
    deb8:	e58d0004 	str	r0, [sp, #4]
    debc:	e59f3018 	ldr	r3, [pc, #24]	; dedc <int_vector+0x2c>
    dec0:	e58d3000 	str	r3, [sp]
    dec4:	e3a03003 	mov	r3, #3, 0
    dec8:	e59f2010 	ldr	r2, [pc, #16]	; dee0 <int_vector+0x30>
    decc:	e59f1010 	ldr	r1, [pc, #16]	; dee4 <int_vector+0x34>
    ded0:	e59f0010 	ldr	r0, [pc, #16]	; dee8 <int_vector+0x38>
    ded4:	ebfffcfe 	bl	d2d4 <printk>
    ded8:	ebfffe2d 	bl	d794 <clean_reboot>
    dedc:	00010704 	.word	0x00010704
    dee0:	00010710 	.word	0x00010710
    dee4:	000106e0 	.word	0x000106e0
    dee8:	00010624 	.word	0x00010624

0000deec <prefetch_abort_vector>:
    deec:	e52de004 	push	{lr}		; (str lr, [sp, #-4]!)
    def0:	e24dd00c 	sub	sp, sp, #12, 0
    def4:	e58d0004 	str	r0, [sp, #4]
    def8:	e59f3018 	ldr	r3, [pc, #24]	; df18 <prefetch_abort_vector+0x2c>
    defc:	e58d3000 	str	r3, [sp]
    df00:	e3a03002 	mov	r3, #2, 0
    df04:	e59f2010 	ldr	r2, [pc, #16]	; df1c <prefetch_abort_vector+0x30>
    df08:	e59f1010 	ldr	r1, [pc, #16]	; df20 <prefetch_abort_vector+0x34>
    df0c:	e59f0010 	ldr	r0, [pc, #16]	; df24 <prefetch_abort_vector+0x38>
    df10:	ebfffcef 	bl	d2d4 <printk>
    df14:	ebfffe1e 	bl	d794 <clean_reboot>
    df18:	00010744 	.word	0x00010744
    df1c:	00010754 	.word	0x00010754
    df20:	0001071c 	.word	0x0001071c
    df24:	00010624 	.word	0x00010624

0000df28 <reset_vector>:
    df28:	e52de004 	push	{lr}		; (str lr, [sp, #-4]!)
    df2c:	e24dd00c 	sub	sp, sp, #12, 0
    df30:	e58d0004 	str	r0, [sp, #4]
    df34:	e59f3018 	ldr	r3, [pc, #24]	; df54 <reset_vector+0x2c>
    df38:	e58d3000 	str	r3, [sp]
    df3c:	e3a03002 	mov	r3, #2, 0
    df40:	e59f2010 	ldr	r2, [pc, #16]	; df58 <reset_vector+0x30>
    df44:	e59f1010 	ldr	r1, [pc, #16]	; df5c <reset_vector+0x34>
    df48:	e59f0010 	ldr	r0, [pc, #16]	; df60 <reset_vector+0x38>
    df4c:	ebfffce0 	bl	d2d4 <printk>
    df50:	ebfffe0f 	bl	d794 <clean_reboot>
    df54:	00010790 	.word	0x00010790
    df58:	00010798 	.word	0x00010798
    df5c:	0001076c 	.word	0x0001076c
    df60:	00010624 	.word	0x00010624

0000df64 <syscall_vector>:
    df64:	e52de004 	push	{lr}		; (str lr, [sp, #-4]!)
    df68:	e24dd00c 	sub	sp, sp, #12, 0
    df6c:	e58d0004 	str	r0, [sp, #4]
    df70:	e59f3018 	ldr	r3, [pc, #24]	; df90 <syscall_vector+0x2c>
    df74:	e58d3000 	str	r3, [sp]
    df78:	e3a03003 	mov	r3, #3, 0
    df7c:	e59f2010 	ldr	r2, [pc, #16]	; df94 <syscall_vector+0x30>
    df80:	e59f1010 	ldr	r1, [pc, #16]	; df98 <syscall_vector+0x34>
    df84:	e59f0010 	ldr	r0, [pc, #16]	; df9c <syscall_vector+0x38>
    df88:	ebfffcd1 	bl	d2d4 <printk>
    df8c:	ebfffe00 	bl	d794 <clean_reboot>
    df90:	000107cc 	.word	0x000107cc
    df94:	000107d0 	.word	0x000107d0
    df98:	000107a8 	.word	0x000107a8
    df9c:	00010624 	.word	0x00010624

0000dfa0 <undefined_instruction_vector>:
    dfa0:	e52de004 	push	{lr}		; (str lr, [sp, #-4]!)
    dfa4:	e24dd00c 	sub	sp, sp, #12, 0
    dfa8:	e58d0004 	str	r0, [sp, #4]
    dfac:	e59f3018 	ldr	r3, [pc, #24]	; dfcc <undefined_instruction_vector+0x2c>
    dfb0:	e58d3000 	str	r3, [sp]
    dfb4:	e3a03002 	mov	r3, #2, 0
    dfb8:	e59f2010 	ldr	r2, [pc, #16]	; dfd0 <undefined_instruction_vector+0x30>
    dfbc:	e59f1010 	ldr	r1, [pc, #16]	; dfd4 <undefined_instruction_vector+0x34>
    dfc0:	e59f0010 	ldr	r0, [pc, #16]	; dfd8 <undefined_instruction_vector+0x38>
    dfc4:	ebfffcc2 	bl	d2d4 <printk>
    dfc8:	ebfffdf1 	bl	d794 <clean_reboot>
    dfcc:	00010810 	.word	0x00010810
    dfd0:	00010820 	.word	0x00010820
    dfd4:	000107e0 	.word	0x000107e0
    dfd8:	00010624 	.word	0x00010624

0000dfdc <reboot_callout>:
    dfdc:	e12fff1e 	bx	lr
